libUtil.so.0 libutil0 #MINVER#
 _ZN4Util10FSProvider14openForReadingERKNS_8FileNameE@Base 0.2.0
 _ZN4Util10FSProvider14openForWritingERKNS_8FileNameE@Base 0.2.0
 _ZN4Util10FSProvider16makeDirRecursiveERKNS_8FileNameE@Base 0.2.0
 _ZN4Util10FSProvider16openForAppendingERKNS_8FileNameE@Base 0.2.0
 _ZN4Util10FSProvider3dirERKNS_8FileNameERNSt7__cxx114listIS1_SaIS1_EEEh@Base 0.2.0
 _ZN4Util10FSProvider4initEv@Base 0.2.0
 _ZN4Util10FSProvider4openERKNS_8FileNameE@Base 0.2.0
 _ZN4Util10FSProvider5isDirERKNS_8FileNameE@Base 0.2.0
 _ZN4Util10FSProvider6isFileERKNS_8FileNameE@Base 0.2.0
 _ZN4Util10FSProvider6removeERKNS_8FileNameE@Base 0.2.0
 _ZN4Util10FSProvider7makeDirERKNS_8FileNameE@Base 0.2.0
 _ZN4Util10FSProvider8fileSizeERKNS_8FileNameE@Base 0.2.0
 _ZN4Util10FSProvider8readFileERKNS_8FileNameERSt6vectorIhSaIhEE@Base 0.2.0
 _ZN4Util10FSProvider9writeFileERKNS_8FileNameERKSt6vectorIhSaIhEEb@Base 0.2.0
 _ZN4Util10FSProviderC1Ev@Base 0.2.0
 _ZN4Util10FSProviderC2Ev@Base 0.2.0
 _ZN4Util10FSProviderD0Ev@Base 0.2.0
 _ZN4Util10FSProviderD1Ev@Base 0.2.0
 _ZN4Util10FSProviderD2Ev@Base 0.2.0
 _ZN4Util10enableInfoEv@Base 0.2.0
 _ZN4Util11BitmapUtils11alterBitmapERNS_6BitmapERKSt8functionIFNS_7Color4fERKNS0_21BitmapAlteringContextEEE@Base 0.2.0
 _ZN4Util11BitmapUtils13blendTogetherERKNS_11PixelFormatERKSt6vectorINS_9ReferenceINS_6BitmapEEESaIS7_EE@Base 0.2.0
 _ZN4Util11BitmapUtils13convertBitmapERKNS_6BitmapERKNS_11PixelFormatE@Base 0.2.0
 _ZN4Util11BitmapUtils18combineInterleavedERKNS_11PixelFormatERKSt6vectorINS_9ReferenceINS_6BitmapEEESaIS7_EE@Base 0.2.0
 _ZN4Util11BitmapUtils23createBitmapFromBitMaskEjjRKNS_11PixelFormatEmPKh@Base 0.2.0
 _ZN4Util11BitmapUtils26createBitmapFromSDLSurfaceEP11SDL_Surface@Base 0.2.0
 _ZN4Util11BitmapUtils26createSDLSurfaceFromBitmapERKNS_6BitmapE@Base 0.2.0
 _ZN4Util11JSON_Parser5parseERKNSt7__cxx1112basic_stringIcSt11char_traitsIcESaIcEEE@Base 0.2.0
 _ZN4Util11LibRegistry20getLibVersionStringsB5cxx11Ev@Base 0.2.0
 _ZN4Util11LibRegistry24registerLibVersionStringENSt7__cxx1112basic_stringIcSt11char_traitsIcESaIcEEES6_@Base 0.2.0
 _ZN4Util11NetProvider4initEv@Base 0.2.0
 _ZN4Util11NetProvider6isFileERKNS_8FileNameE@Base 0.2.0
 _ZN4Util11NetProvider8readFileERKNS_8FileNameERSt6vectorIhSaIhEE@Base 0.2.0
 _ZN4Util11NetProviderC1Ev@Base 0.2.0
 _ZN4Util11NetProviderC2Ev@Base 0.2.0
 _ZN4Util11NetProviderD0Ev@Base 0.2.0
 _ZN4Util11NetProviderD1Ev@Base 0.2.0
 _ZN4Util11NetProviderD2Ev@Base 0.2.0
 _ZN4Util11PixelFormat10BGRA_FLOATE@Base 0.2.0
 _ZN4Util11PixelFormat10MONO_FLOATE@Base 0.2.0
 _ZN4Util11PixelFormat10RGBA_FLOATE@Base 0.2.0
 _ZN4Util11PixelFormat3BGRE@Base 0.2.0
 _ZN4Util11PixelFormat3RGBE@Base 0.2.0
 _ZN4Util11PixelFormat4BGRAE@Base 0.2.0
 _ZN4Util11PixelFormat4MONOE@Base 0.2.0
 _ZN4Util11PixelFormat4RGBAE@Base 0.2.0
 _ZN4Util11PixelFormat7UNKNOWNE@Base 0.2.0
 _ZN4Util11PixelFormat9BGR_FLOATE@Base 0.2.0
 _ZN4Util11PixelFormat9RGB_FLOATE@Base 0.2.0
 _ZN4Util11StreamerPNG10loadBitmapERSi@Base 0.2.0
 _ZN4Util11StreamerPNG10saveBitmapERKNS_6BitmapERSo@Base 0.2.0
 _ZN4Util11StreamerPNG4initEv@Base 0.2.0
 _ZN4Util11StreamerPNGD0Ev@Base 0.2.0
 _ZN4Util11StreamerPNGD1Ev@Base 0.2.0
 _ZN4Util11StreamerPNGD2Ev@Base 0.2.0
 _ZN4Util11StreamerSDL10loadBitmapERSi@Base 0.2.0
 _ZN4Util11StreamerSDL10saveBitmapERKNS_6BitmapERSo@Base 0.2.0
 _ZN4Util11StreamerSDL4initEv@Base 0.2.0
 _ZN4Util11StreamerSDLD0Ev@Base 0.2.0
 _ZN4Util11StreamerSDLD1Ev@Base 0.2.0
 _ZN4Util11StreamerSDLD2Ev@Base 0.2.0
 _ZN4Util11StringUtils10beginsWithEPKcS2_@Base 0.2.0
 _ZN4Util11StringUtils10beginsWithERSiRKNSt7__cxx1112basic_stringIcSt11char_traitsIcESaIcEEE@Base 0.2.0
 _ZN4Util11StringUtils10replaceAllERKNSt7__cxx1112basic_stringIcSt11char_traitsIcESaIcEEES8_S8_i@Base 0.2.0
 _ZN4Util11StringUtils13extractFloatsERKNSt7__cxx1112basic_stringIcSt11char_traitsIcESaIcEEERSt5dequeIfSaIfEE@Base 0.2.0
 _ZN4Util11StringUtils13utf32_to_utf8B5cxx11Ej@Base 0.2.0
 _ZN4Util11StringUtils13utf32_to_utf8ERKNSt7__cxx1112basic_stringIDiSt11char_traitsIDiESaIDiEEE@Base 0.2.0
 _ZN4Util11StringUtils13utf8_to_utf32ERKNSt7__cxx1112basic_stringIcSt11char_traitsIcESaIcEEE@Base 0.2.0
 _ZN4Util11StringUtils15replaceMultipleERKNSt7__cxx1112basic_stringIcSt11char_traitsIcESaIcEEERKSt5dequeISt4pairIS7_S6_ESaISB_EEi@Base 0.2.0
 _ZN4Util11StringUtils15replaceMultipleERKNSt7__cxx1112basic_stringIcSt11char_traitsIcESaIcEEEiPS7_S9_i@Base 0.2.0
 _ZN4Util11StringUtils15stepWhitespacesEPKcRi@Base 0.2.0
 _ZN4Util11StringUtils15stepWhitespacesEPPc@Base 0.2.0
 _ZN4Util11StringUtils15stepWhitespacesERSi@Base 0.2.0
 _ZN4Util11StringUtils15stepWhitespacesERSiRi@Base 0.2.0
 _ZN4Util11StringUtils16readQuotedStringB5cxx11EPKcRi@Base 0.2.0
 _ZN4Util11StringUtils17readUTF8CodepointERKNSt7__cxx1112basic_stringIcSt11char_traitsIcESaIcEEEm@Base 0.2.0
 _ZN4Util11StringUtils17toFormattedStringB5cxx11Ef@Base 0.2.0
 _ZN4Util11StringUtils18createRandomStringB5cxx11Em@Base 0.2.0
 _ZN4Util11StringUtils20extractUnsignedLongsERKNSt7__cxx1112basic_stringIcSt11char_traitsIcESaIcEEERSt5dequeImSaImEE@Base 0.2.0
 _ZN4Util11StringUtils4trimERKNSt7__cxx1112basic_stringIcSt11char_traitsIcESaIcEEE@Base 0.2.0
 _ZN4Util11StringUtils6escapeERKNSt7__cxx1112basic_stringIcSt11char_traitsIcESaIcEEE@Base 0.2.0
 _ZN4Util11StringUtils6toBoolERKNSt7__cxx1112basic_stringIcSt11char_traitsIcESaIcEEE@Base 0.2.0
 _ZN4Util11StringUtils6toIntsERKNSt7__cxx1112basic_stringIcSt11char_traitsIcESaIcEEE@Base 0.2.0
 _ZN4Util11StringUtils7getLineB5cxx11EPKc@Base 0.2.0
 _ZN4Util11StringUtils7toBoolsERKNSt7__cxx1112basic_stringIcSt11char_traitsIcESaIcEEE@Base 0.2.0
 _ZN4Util11StringUtils8nextLineEPKcRi@Base 0.2.0
 _ZN4Util11StringUtils8stepTextEPKcRiS2_@Base 0.2.0
 _ZN4Util11StringUtils8toFloatsERKNSt7__cxx1112basic_stringIcSt11char_traitsIcESaIcEEE@Base 0.2.0
 _ZN4Util11StringUtils8toStringINSt7__cxx1112basic_stringIcSt11char_traitsIcESaIcEEEEES7_T_@Base 0.2.0
 _ZN4Util11StringUtils8toStringIdEENSt7__cxx1112basic_stringIcSt11char_traitsIcESaIcEEET_@Base 0.2.0
 _ZN4Util11StringUtils8toStringIfEENSt7__cxx1112basic_stringIcSt11char_traitsIcESaIcEEET_@Base 0.2.0
 _ZN4Util11StringUtils8toStringIiEENSt7__cxx1112basic_stringIcSt11char_traitsIcESaIcEEET_@Base 0.2.0
 _ZN4Util11StringUtils8toStringIjEENSt7__cxx1112basic_stringIcSt11char_traitsIcESaIcEEET_@Base 0.2.0
 _ZN4Util11StringUtils8toStringIlEENSt7__cxx1112basic_stringIcSt11char_traitsIcESaIcEEET_@Base 0.2.0
 _ZN4Util11StringUtils8toStringImEENSt7__cxx1112basic_stringIcSt11char_traitsIcESaIcEEET_@Base 0.2.0
 _ZN4Util11StringUtils8toStringIsEENSt7__cxx1112basic_stringIcSt11char_traitsIcESaIcEEET_@Base 0.2.0
 _ZN4Util11StringUtils8toStringItEENSt7__cxx1112basic_stringIcSt11char_traitsIcESaIcEEET_@Base 0.2.0
 _ZN4Util11ZIPProvider12decomposeURLERKNS_8FileNameERNSt7__cxx1112basic_stringIcSt11char_traitsIcESaIcEEERS1_@Base 0.2.0
 _ZN4Util11ZIPProvider12getZIPHandleERKNSt7__cxx1112basic_stringIcSt11char_traitsIcESaIcEEEb@Base 0.2.0
 _ZN4Util11ZIPProvider16makeDirRecursiveERKNS_8FileNameE@Base 0.2.0
 _ZN4Util11ZIPProvider3dirERKNS_8FileNameERNSt7__cxx114listIS1_SaIS1_EEEh@Base 0.2.0
 _ZN4Util11ZIPProvider4initEv@Base 0.2.0
 _ZN4Util11ZIPProvider5flushEv@Base 0.2.0
 _ZN4Util11ZIPProvider5isDirERKNS_8FileNameE@Base 0.2.0
 _ZN4Util11ZIPProvider6isFileERKNS_8FileNameE@Base 0.2.0
 _ZN4Util11ZIPProvider6removeERKNS_8FileNameE@Base 0.2.0
 _ZN4Util11ZIPProvider7makeDirERKNS_8FileNameE@Base 0.2.0
 _ZN4Util11ZIPProvider8fileSizeERKNS_8FileNameE@Base 0.2.0
 _ZN4Util11ZIPProvider8readFileERKNS_8FileNameERSt6vectorIhSaIhEE@Base 0.2.0
 _ZN4Util11ZIPProvider9ZIPHandle3dirERKNSt7__cxx1112basic_stringIcSt11char_traitsIcESaIcEEERNS2_4listINS_8FileNameESaISB_EEEh@Base 0.2.0
 _ZN4Util11ZIPProvider9ZIPHandle5isDirERKNS_8FileNameE@Base 0.2.0
 _ZN4Util11ZIPProvider9ZIPHandle6isFileERKNS_8FileNameE@Base 0.2.0
 _ZN4Util11ZIPProvider9ZIPHandle7makeDirERKNS_8FileNameE@Base 0.2.0
 _ZN4Util11ZIPProvider9ZIPHandle8fileSizeERKNS_8FileNameE@Base 0.2.0
 _ZN4Util11ZIPProvider9ZIPHandle8readFileERKNS_8FileNameERSt6vectorIhSaIhEE@Base 0.2.0
 _ZN4Util11ZIPProvider9ZIPHandle9removeDirERKNS_8FileNameE@Base 0.2.0
 _ZN4Util11ZIPProvider9ZIPHandle9writeFileERKNS_8FileNameERKSt6vectorIhSaIhEEb@Base 0.2.0
 _ZN4Util11ZIPProvider9ZIPHandleC1ENS_8FileNameEP3zip@Base 0.2.0
 _ZN4Util11ZIPProvider9ZIPHandleC2ENS_8FileNameEP3zip@Base 0.2.0
 _ZN4Util11ZIPProvider9ZIPHandleD1Ev@Base 0.2.0
 _ZN4Util11ZIPProvider9ZIPHandleD2Ev@Base 0.2.0
 _ZN4Util11ZIPProvider9writeFileERKNS_8FileNameERKSt6vectorIhSaIhEEb@Base 0.2.0
 _ZN4Util11ZIPProviderC1Ev@Base 0.2.0
 _ZN4Util11ZIPProviderC2Ev@Base 0.2.0
 _ZN4Util11ZIPProviderD0Ev@Base 0.2.0
 _ZN4Util11ZIPProviderD1Ev@Base 0.2.0
 _ZN4Util11ZIPProviderD2Ev@Base 0.2.0
 _ZN4Util11disableInfoEv@Base 0.2.0
 _ZN4Util11getNumBytesENS_12TypeConstantE@Base 0.2.0
 _ZN4Util12ColorLibrary10LIGHT_GREYE@Base 0.2.0
 _ZN4Util12ColorLibrary3REDE@Base 0.2.0
 _ZN4Util12ColorLibrary4BLUEE@Base 0.2.0
 _ZN4Util12ColorLibrary4CYANE@Base 0.2.0
 _ZN4Util12ColorLibrary4GRAYE@Base 0.2.0
 _ZN4Util12ColorLibrary5BLACKE@Base 0.2.0
 _ZN4Util12ColorLibrary5GREENE@Base 0.2.0
 _ZN4Util12ColorLibrary5WHITEE@Base 0.2.0
 _ZN4Util12ColorLibrary6YELLOWE@Base 0.2.0
 _ZN4Util12ColorLibrary7MAGENTAE@Base 0.2.0
 _ZN4Util12ColorLibrary9DARK_GREYE@Base 0.2.0
 _ZN4Util12DBFSProvider11getDBHandleERKNSt7__cxx1112basic_stringIcSt11char_traitsIcESaIcEEEb@Base 0.2.0
 _ZN4Util12DBFSProvider15createStatementEP7sqlite3PKc@Base 0.2.0
 _ZN4Util12DBFSProvider15extractFileNameERKNS_8FileNameERNSt7__cxx1112basic_stringIcSt11char_traitsIcESaIcEEESA_SA_@Base 0.2.0
 _ZN4Util12DBFSProvider16makeDirRecursiveERKNS_8FileNameE@Base 0.2.0
 _ZN4Util12DBFSProvider3dirERKNS_8FileNameERNSt7__cxx114listIS1_SaIS1_EEEh@Base 0.2.0
 _ZN4Util12DBFSProvider4initEv@Base 0.2.0
 _ZN4Util12DBFSProvider5flushEv@Base 0.2.0
 _ZN4Util12DBFSProvider5isDirERKNS_8FileNameE@Base 0.2.0
 _ZN4Util12DBFSProvider6isFileERKNS_8FileNameE@Base 0.2.0
 _ZN4Util12DBFSProvider7makeDirERKNS_8FileNameE@Base 0.2.0
 _ZN4Util12DBFSProvider8DBHandle11getFolderIdERKNSt7__cxx1112basic_stringIcSt11char_traitsIcESaIcEEE@Base 0.2.0
 _ZN4Util12DBFSProvider8DBHandle13isPendingFileEiRKNSt7__cxx1112basic_stringIcSt11char_traitsIcESaIcEEE@Base 0.2.0
 _ZN4Util12DBFSProvider8DBHandle14storeStatementEiRKNSt7__cxx1112basic_stringIcSt11char_traitsIcESaIcEEEP12sqlite3_stmt@Base 0.2.0
 _ZN4Util12DBFSProvider8DBHandle3dirERKNSt7__cxx1112basic_stringIcSt11char_traitsIcESaIcEEES9_RNS2_4listINS_8FileNameESaISB_EEEh@Base 0.2.0
 _ZN4Util12DBFSProvider8DBHandle5flushEv@Base 0.2.0
 _ZN4Util12DBFSProvider8DBHandle6isFileERKNSt7__cxx1112basic_stringIcSt11char_traitsIcESaIcEEES9_@Base 0.2.0
 _ZN4Util12DBFSProvider8DBHandle7getSizeERKNSt7__cxx1112basic_stringIcSt11char_traitsIcESaIcEEES9_@Base 0.2.0
 _ZN4Util12DBFSProvider8DBHandle7makeDirERKNSt7__cxx1112basic_stringIcSt11char_traitsIcESaIcEEE@Base 0.2.0
 _ZN4Util12DBFSProvider8DBHandle8readFileERKNSt7__cxx1112basic_stringIcSt11char_traitsIcESaIcEEES9_@Base 0.2.0
 _ZN4Util12DBFSProvider8DBHandle8saveFileERKNSt7__cxx1112basic_stringIcSt11char_traitsIcESaIcEEES9_RKSt6vectorIhSaIhEEb@Base 0.2.0
 _ZN4Util12DBFSProvider8DBHandleC1EP7sqlite3@Base 0.2.0
 _ZN4Util12DBFSProvider8DBHandleC2EP7sqlite3@Base 0.2.0
 _ZN4Util12DBFSProvider8DBHandleD1Ev@Base 0.2.0
 _ZN4Util12DBFSProvider8DBHandleD2Ev@Base 0.2.0
 _ZN4Util12DBFSProvider8createDBERKNSt7__cxx1112basic_stringIcSt11char_traitsIcESaIcEEE@Base 0.2.0
 _ZN4Util12DBFSProvider8fileSizeERKNS_8FileNameE@Base 0.2.0
 _ZN4Util12DBFSProvider8readFileERKNS_8FileNameERSt6vectorIhSaIhEE@Base 0.2.0
 _ZN4Util12DBFSProvider9writeFileERKNS_8FileNameERKSt6vectorIhSaIhEEb@Base 0.2.0
 _ZN4Util12DBFSProviderC1Ev@Base 0.2.0
 _ZN4Util12DBFSProviderC2Ev@Base 0.2.0
 _ZN4Util12DBFSProviderD0Ev@Base 0.2.0
 _ZN4Util12DBFSProviderD1Ev@Base 0.2.0
 _ZN4Util12DBFSProviderD2Ev@Base 0.2.0
 _ZN4Util12EmbeddedFont7getFontEv@Base 0.2.0
 _ZN4Util12FontRenderer10renderTextEjRKNSt7__cxx1112basic_stringIDiSt11char_traitsIDiESaIDiEEE@Base 0.2.0
 _ZN4Util12FontRenderer16createKerningMapERKNSt7__cxx1112basic_stringIDiSt11char_traitsIDiESaIDiEEE@Base 0.2.0
 _ZN4Util12FontRenderer17createGlyphBitmapEjRKNSt7__cxx1112basic_stringIDiSt11char_traitsIDiESaIDiEEE@Base 0.2.0
 _ZN4Util12FontRendererC1ERKNSt7__cxx1112basic_stringIcSt11char_traitsIcESaIcEEE@Base 0.2.0
 _ZN4Util12FontRendererC2ERKNSt7__cxx1112basic_stringIcSt11char_traitsIcESaIcEEE@Base 0.2.0
 _ZN4Util12FontRendererD1Ev@Base 0.2.0
 _ZN4Util12FontRendererD2Ev@Base 0.2.0
 _ZN4Util12decodeBase64ERKNSt7__cxx1112basic_stringIcSt11char_traitsIcESaIcEEE@Base 0.2.0
 _ZN4Util12encodeBase64B5cxx11ERKSt6vectorIhSaIhEE@Base 0.2.0
 _ZN4Util13BoolAttributeD0Ev@Base 0.2.0
 _ZN4Util13BoolAttributeD1Ev@Base 0.2.0
 _ZN4Util13BoolAttributeD2Ev@Base 0.2.0
 _ZN4Util13PixelAccessor4copyEPS0_S1_@Base 0.2.0
 _ZN4Util13PixelAccessor6createENS_9ReferenceINS_6BitmapEEE@Base 0.2.0
 _ZN4Util13PixelAccessor6doFillEjjjjRKNS_7Color4fE@Base 0.2.0
 _ZN4Util13Serialization10loadBitmapERKNS_8FileNameE@Base 0.2.0
 _ZN4Util13Serialization10loadBitmapERKNSt7__cxx1112basic_stringIcSt11char_traitsIcESaIcEEES8_@Base 0.2.0
 _ZN4Util13Serialization10saveBitmapERKNS_6BitmapERKNS_8FileNameE@Base 0.2.0
 _ZN4Util13Serialization10saveBitmapERKNS_6BitmapERKNSt7__cxx1112basic_stringIcSt11char_traitsIcESaIcEEERSo@Base 0.2.0
 _ZN4Util13Serialization19registerBitmapSaverERKNSt7__cxx1112basic_stringIcSt11char_traitsIcESaIcEEESt8functionIFPNS_22AbstractBitmapStreamerEvEE@Base 0.2.0
 _ZN4Util13Serialization20registerBitmapLoaderERKNSt7__cxx1112basic_stringIcSt11char_traitsIcESaIcEEESt8functionIFPNS_22AbstractBitmapStreamerEvEE@Base 0.2.0
 _ZN4Util14NoiseGeneratorC1Ej@Base 0.2.0
 _ZN4Util14NoiseGeneratorC2Ej@Base 0.2.0
 _ZN4Util14PixelAccessorF12doWriteColorEjjRKNS_7Color4fE@Base 0.2.0
 _ZN4Util14PixelAccessorF12doWriteColorEjjRKNS_8Color4ubE@Base 0.2.0
 _ZN4Util14PixelAccessorF23doWriteSingleValueFloatEjjf@Base 0.2.0
 _ZN4Util14PixelAccessorFD0Ev@Base 0.2.0
 _ZN4Util14PixelAccessorFD1Ev@Base 0.2.0
 _ZN4Util14PixelAccessorFD2Ev@Base 0.2.0
 _ZN4Util14WrapperFactoryISt4pairINSt7__cxx1112basic_stringIcSt11char_traitsIcESaIcEEEPKNS_19GenericAttributeMapEEPNS_16GenericAttributeES7_St8functionIFSD_RKSB_EENS_16FallbackPolicies17ExceptionFallbackEE12registerTypeERKS7_SI_@Base 0.2.0
 _ZN4Util14WrapperFactoryISt4pairINSt7__cxx1112basic_stringIcSt11char_traitsIcESaIcEEEPKNS_19GenericAttributeMapEEPNS_16GenericAttributeES7_St8functionIFSD_RKSB_EENS_16FallbackPolicies17ExceptionFallbackEE6createERKS7_SG_@Base 0.2.0
 _ZN4Util14WrapperFactoryISt4pairINSt7__cxx1112basic_stringIcSt11char_traitsIcESaIcEEEPKNS_19GenericAttributeMapEEPNS_16GenericAttributeES7_St8functionIFSD_RKSB_EENS_16FallbackPolicies17ExceptionFallbackEED1Ev@Base 0.2.0
 _ZN4Util14WrapperFactoryISt4pairINSt7__cxx1112basic_stringIcSt11char_traitsIcESaIcEEEPKNS_19GenericAttributeMapEEPNS_16GenericAttributeES7_St8functionIFSD_RKSB_EENS_16FallbackPolicies17ExceptionFallbackEED2Ev@Base 0.2.0
 _ZN4Util14WrapperFactoryISt4pairIPKNS_16GenericAttributeEPKNS_19GenericAttributeMapEES1_INSt7__cxx1112basic_stringIcSt11char_traitsIcESaIcEEESE_ESt10type_indexSt8functionIFSF_RKS8_EENS_16FallbackPolicies17ExceptionFallbackEE12registerTypeERKSG_SL_@Base 0.2.0
 _ZN4Util14WrapperFactoryISt4pairIPKNS_16GenericAttributeEPKNS_19GenericAttributeMapEES1_INSt7__cxx1112basic_stringIcSt11char_traitsIcESaIcEEESE_ESt10type_indexSt8functionIFSF_RKS8_EENS_16FallbackPolicies17ExceptionFallbackEE6createERKSG_SJ_@Base 0.2.0
 _ZN4Util14WrapperFactoryISt4pairIPKNS_16GenericAttributeEPKNS_19GenericAttributeMapEES1_INSt7__cxx1112basic_stringIcSt11char_traitsIcESaIcEEESE_ESt10type_indexSt8functionIFSF_RKS8_EENS_16FallbackPolicies17ExceptionFallbackEED1Ev@Base 0.2.0
 _ZN4Util14WrapperFactoryISt4pairIPKNS_16GenericAttributeEPKNS_19GenericAttributeMapEES1_INSt7__cxx1112basic_stringIcSt11char_traitsIcESaIcEEESE_ESt10type_indexSt8functionIFSF_RKS8_EENS_16FallbackPolicies17ExceptionFallbackEED2Ev@Base 0.2.0
 _ZN4Util15ArchiveProvider12decomposeURLERKNS_8FileNameERNSt7__cxx1112basic_stringIcSt11char_traitsIcESaIcEEERS1_@Base 0.2.0
 _ZN4Util15ArchiveProvider16makeDirRecursiveERKNS_8FileNameE@Base 0.2.0
 _ZN4Util15ArchiveProvider3dirERKNS_8FileNameERNSt7__cxx114listIS1_SaIS1_EEEh@Base 0.2.0
 _ZN4Util15ArchiveProvider4initEv@Base 0.2.0
 _ZN4Util15ArchiveProvider5flushEv@Base 0.2.0
 _ZN4Util15ArchiveProvider5isDirERKNS_8FileNameE@Base 0.2.0
 _ZN4Util15ArchiveProvider6isFileERKNS_8FileNameE@Base 0.2.0
 _ZN4Util15ArchiveProvider6removeERKNS_8FileNameE@Base 0.2.0
 _ZN4Util15ArchiveProvider7makeDirERKNS_8FileNameE@Base 0.2.0
 _ZN4Util15ArchiveProvider8fileSizeERKNS_8FileNameE@Base 0.2.0
 _ZN4Util15ArchiveProvider8readFileERKNS_8FileNameERSt6vectorIhSaIhEE@Base 0.2.0
 _ZN4Util15ArchiveProvider9getHandleERKNSt7__cxx1112basic_stringIcSt11char_traitsIcESaIcEEE@Base 0.2.0
 _ZN4Util15ArchiveProvider9writeFileERKNS_8FileNameERKSt6vectorIhSaIhEEb@Base 0.2.0
 _ZN4Util15ArchiveProviderC1Ev@Base 0.2.0
 _ZN4Util15ArchiveProviderC2Ev@Base 0.2.0
 _ZN4Util15ArchiveProviderD0Ev@Base 0.2.0
 _ZN4Util15ArchiveProviderD1Ev@Base 0.2.0
 _ZN4Util15ArchiveProviderD2Ev@Base 0.2.0
 _ZN4Util15PixelAccessorUb12doWriteColorEjjRKNS_7Color4fE@Base 0.2.0
 _ZN4Util15PixelAccessorUb12doWriteColorEjjRKNS_8Color4ubE@Base 0.2.0
 _ZN4Util15PixelAccessorUb23doWriteSingleValueFloatEjjf@Base 0.2.0
 _ZN4Util15PixelAccessorUbD0Ev@Base 0.2.0
 _ZN4Util15PixelAccessorUbD1Ev@Base 0.2.0
 _ZN4Util15PixelAccessorUbD2Ev@Base 0.2.0
 _ZN4Util15WritableArchive15openWriteHandleERKNSt7__cxx1112basic_stringIcSt11char_traitsIcESaIcEEE@Base 0.2.0
 _ZN4Util15WritableArchive15openWriteHandleERKNSt7__cxx1112basic_stringIcSt11char_traitsIcESaIcEEEP7archive@Base 0.2.0
 _ZN4Util15WritableArchiveD1Ev@Base 0.2.0
 _ZN4Util15WritableArchiveD2Ev@Base 0.2.0
 _ZN4Util16AbstractStreamer11loadGenericERSi@Base 0.2.0
 _ZN4Util16AbstractStreamer11saveGenericEPNS_20GenericAttributeListERSo@Base 0.2.0
 _ZN4Util16FallbackPolicies17ExceptionFallbackIPNS_16GenericAttributeENSt7__cxx1112basic_stringIcSt11char_traitsIcESaIcEEEE9ExceptionD0Ev@Base 0.2.0
 _ZN4Util16FallbackPolicies17ExceptionFallbackIPNS_16GenericAttributeENSt7__cxx1112basic_stringIcSt11char_traitsIcESaIcEEEE9ExceptionD1Ev@Base 0.2.0
 _ZN4Util16FallbackPolicies17ExceptionFallbackIPNS_16GenericAttributeENSt7__cxx1112basic_stringIcSt11char_traitsIcESaIcEEEE9ExceptionD2Ev@Base 0.2.0
 _ZN4Util16FallbackPolicies17ExceptionFallbackISt4pairINSt7__cxx1112basic_stringIcSt11char_traitsIcESaIcEEES8_ESt10type_indexE9ExceptionD0Ev@Base 0.2.0
 _ZN4Util16FallbackPolicies17ExceptionFallbackISt4pairINSt7__cxx1112basic_stringIcSt11char_traitsIcESaIcEEES8_ESt10type_indexE9ExceptionD1Ev@Base 0.2.0
 _ZN4Util16FallbackPolicies17ExceptionFallbackISt4pairINSt7__cxx1112basic_stringIcSt11char_traitsIcESaIcEEES8_ESt10type_indexE9ExceptionD2Ev@Base 0.2.0
 _ZN4Util16GenericAttribute10createBoolEb@Base 0.2.0
 _ZN4Util16GenericAttribute12createStringB5cxx11EPS0_@Base 0.2.0
 _ZN4Util16PixelAccessor4ub12doWriteColorEjjRKNS_7Color4fE@Base 0.2.0
 _ZN4Util16PixelAccessor4ub12doWriteColorEjjRKNS_8Color4ubE@Base 0.2.0
 _ZN4Util16PixelAccessor4ub23doWriteSingleValueFloatEjjf@Base 0.2.0
 _ZN4Util16PixelAccessor4ub6doFillEjjjjRKNS_7Color4fE@Base 0.2.0
 _ZN4Util16PixelAccessor4ubD0Ev@Base 0.2.0
 _ZN4Util16PixelAccessor4ubD1Ev@Base 0.2.0
 _ZN4Util16PixelAccessor4ubD2Ev@Base 0.2.0
 _ZN4Util16PixelAccessorI3212doWriteColorEjjRKNS_7Color4fE@Base 0.2.0
 _ZN4Util16PixelAccessorI3212doWriteColorEjjRKNS_8Color4ubE@Base 0.2.0
 _ZN4Util16PixelAccessorI3223doWriteSingleValueFloatEjjf@Base 0.2.0
 _ZN4Util16PixelAccessorI32D0Ev@Base 0.2.0
 _ZN4Util16PixelAccessorI32D1Ev@Base 0.2.0
 _ZN4Util16PixelAccessorI32D2Ev@Base 0.2.0
 _ZN4Util16PixelAccessorU3212doWriteColorEjjRKNS_7Color4fE@Base 0.2.0
 _ZN4Util16PixelAccessorU3212doWriteColorEjjRKNS_8Color4ubE@Base 0.2.0
 _ZN4Util16PixelAccessorU3223doWriteSingleValueFloatEjjf@Base 0.2.0
 _ZN4Util16PixelAccessorU32D0Ev@Base 0.2.0
 _ZN4Util16PixelAccessorU32D1Ev@Base 0.2.0
 _ZN4Util16PixelAccessorU32D2Ev@Base 0.2.0
 _ZN4Util16ReferenceCounterINS_13PixelAccessorENS_13ObjectDeleterIS1_EEE15removeReferenceEPS1_@Base 0.2.0
 _ZN4Util16ReferenceCounterINS_6BitmapENS_13ObjectDeleterIS1_EEE15removeReferenceEPS1_@Base 0.2.0
 _ZN4Util16StreamerSDLImage10loadBitmapERSi@Base 0.2.0
 _ZN4Util16StreamerSDLImage4initEv@Base 0.2.0
 _ZN4Util16StreamerSDLImageD0Ev@Base 0.2.0
 _ZN4Util16StreamerSDLImageD1Ev@Base 0.2.0
 _ZN4Util16StreamerSDLImageD2Ev@Base 0.2.0
 _ZN4Util16StringIdentifier6calcIdERKNSt7__cxx1112basic_stringIcSt11char_traitsIcESaIcEEE@Base 0.2.0
 _ZN4Util16StringIdentifier8calcHashERKNSt7__cxx1112basic_stringIcSt11char_traitsIcESaIcEEE@Base 0.2.0
 _ZN4Util16WrapperAttributeIPvED0Ev@Base 0.2.0
 _ZN4Util16WrapperAttributeIPvED1Ev@Base 0.2.0
 _ZN4Util16WrapperAttributeIPvED2Ev@Base 0.2.0
 _ZN4Util16_NumberAttributeIcED0Ev@Base 0.2.0
 _ZN4Util16_NumberAttributeIcED1Ev@Base 0.2.0
 _ZN4Util16_NumberAttributeIcED2Ev@Base 0.2.0
 _ZN4Util16_NumberAttributeIdED0Ev@Base 0.2.0
 _ZN4Util16_NumberAttributeIdED1Ev@Base 0.2.0
 _ZN4Util16_NumberAttributeIdED2Ev@Base 0.2.0
 _ZN4Util16_NumberAttributeIfED0Ev@Base 0.2.0
 _ZN4Util16_NumberAttributeIfED1Ev@Base 0.2.0
 _ZN4Util16_NumberAttributeIfED2Ev@Base 0.2.0
 _ZN4Util16_NumberAttributeIhED0Ev@Base 0.2.0
 _ZN4Util16_NumberAttributeIhED1Ev@Base 0.2.0
 _ZN4Util16_NumberAttributeIhED2Ev@Base 0.2.0
 _ZN4Util16_NumberAttributeIiED0Ev@Base 0.2.0
 _ZN4Util16_NumberAttributeIiED1Ev@Base 0.2.0
 _ZN4Util16_NumberAttributeIiED2Ev@Base 0.2.0
 _ZN4Util16_NumberAttributeIjED0Ev@Base 0.2.0
 _ZN4Util16_NumberAttributeIjED1Ev@Base 0.2.0
 _ZN4Util16_NumberAttributeIjED2Ev@Base 0.2.0
 _ZN4Util16_NumberAttributeIlED0Ev@Base 0.2.0
 _ZN4Util16_NumberAttributeIlED1Ev@Base 0.2.0
 _ZN4Util16_NumberAttributeIlED2Ev@Base 0.2.0
 _ZN4Util16_NumberAttributeImED0Ev@Base 0.2.0
 _ZN4Util16_NumberAttributeImED1Ev@Base 0.2.0
 _ZN4Util16_NumberAttributeImED2Ev@Base 0.2.0
 _ZN4Util16_NumberAttributeIsED0Ev@Base 0.2.0
 _ZN4Util16_NumberAttributeIsED1Ev@Base 0.2.0
 _ZN4Util16_NumberAttributeIsED2Ev@Base 0.2.0
 _ZN4Util16_NumberAttributeItED0Ev@Base 0.2.0
 _ZN4Util16_NumberAttributeItED1Ev@Base 0.2.0
 _ZN4Util16_NumberAttributeItED2Ev@Base 0.2.0
 _ZN4Util16_StringAttributeINSt7__cxx1112basic_stringIcSt11char_traitsIcESaIcEEEED0Ev@Base 0.2.0
 _ZN4Util16_StringAttributeINSt7__cxx1112basic_stringIcSt11char_traitsIcESaIcEEEED1Ev@Base 0.2.0
 _ZN4Util16_StringAttributeINSt7__cxx1112basic_stringIcSt11char_traitsIcESaIcEEEED2Ev@Base 0.2.0
 _ZN4Util17GenericConversion6toJSONERKNS_7GenericERSo@Base 0.2.0
 _ZN4Util17GenericConversion8fromJSONERSi@Base 0.2.0
 _ZN4Util17ProgressIndicator9incrementEv@Base 0.2.0
 _ZN4Util17ProgressIndicatorC1ENSt7__cxx1112basic_stringIcSt11char_traitsIcESaIcEEEjd@Base 0.2.0
 _ZN4Util17ProgressIndicatorC2ENSt7__cxx1112basic_stringIcSt11char_traitsIcESaIcEEEjd@Base 0.2.0
 _ZN4Util17serializeGAStringINSt7__cxx1112basic_stringIcSt11char_traitsIcESaIcEEEEESt4pairIS6_S6_ERKS7_IPKNS_16GenericAttributeEPKNS_19GenericAttributeMapEE@Base 0.2.0
 _ZN4Util18AbstractFSProvider14openForReadingERKNS_8FileNameE@Base 0.2.0
 _ZN4Util18AbstractFSProvider14openForWritingERKNS_8FileNameE@Base 0.2.0
 _ZN4Util18AbstractFSProvider15removeRecursiveERKNS_8FileNameE@Base 0.2.0
 _ZN4Util18AbstractFSProvider16getStatusMessageB5cxx11ENS0_8status_tE@Base 0.2.0
 _ZN4Util18AbstractFSProvider16makeDirRecursiveERKNS_8FileNameE@Base 0.2.0
 _ZN4Util18AbstractFSProvider16openForAppendingERKNS_8FileNameE@Base 0.2.0
 _ZN4Util18AbstractFSProvider3dirERKNS_8FileNameERNSt7__cxx114listIS1_SaIS1_EEEh@Base 0.2.0
 _ZN4Util18AbstractFSProvider4openERKNS_8FileNameE@Base 0.2.0
 _ZN4Util18AbstractFSProvider5flushEv@Base 0.2.0
 _ZN4Util18AbstractFSProvider5isDirERKNS_8FileNameE@Base 0.2.0
 _ZN4Util18AbstractFSProvider6existsERKNS_8FileNameE@Base 0.2.0
 _ZN4Util18AbstractFSProvider6isFileERKNS_8FileNameE@Base 0.2.0
 _ZN4Util18AbstractFSProvider6removeERKNS_8FileNameE@Base 0.2.0
 _ZN4Util18AbstractFSProvider7makeDirERKNS_8FileNameE@Base 0.2.0
 _ZN4Util18AbstractFSProvider8fileSizeERKNS_8FileNameE@Base 0.2.0
 _ZN4Util18AbstractFSProvider8readFileERKNS_8FileNameERSt6vectorIhSaIhEE@Base 0.2.0
 _ZN4Util18AbstractFSProvider9writeFileERKNS_8FileNameERKSt6vectorIhSaIhEEb@Base 0.2.0
 _ZN4Util18AbstractFSProviderC1Ev@Base 0.2.0
 _ZN4Util18AbstractFSProviderC2Ev@Base 0.2.0
 _ZN4Util18AbstractFSProviderD0Ev@Base 0.2.0
 _ZN4Util18AbstractFSProviderD1Ev@Base 0.2.0
 _ZN4Util18AbstractFSProviderD2Ev@Base 0.2.0
 _ZN4Util18TemporaryDirectory7counterE@Base 0.2.0
 _ZN4Util18TemporaryDirectoryC1ERKNSt7__cxx1112basic_stringIcSt11char_traitsIcESaIcEEE@Base 0.2.0
 _ZN4Util18TemporaryDirectoryC2ERKNSt7__cxx1112basic_stringIcSt11char_traitsIcESaIcEEE@Base 0.2.0
 _ZN4Util18TemporaryDirectoryD1Ev@Base 0.2.0
 _ZN4Util18TemporaryDirectoryD2Ev@Base 0.2.0
 _ZN4Util19GenericAttributeMap10unsetValueERKNS_16StringIdentifierE@Base 0.2.0
 _ZN4Util19GenericAttributeMap8setValueERKNS_16StringIdentifierEPNS_16GenericAttributeE@Base 0.2.0
 _ZN4Util19GenericAttributeMap9setStringERKNS_16StringIdentifierERKNSt7__cxx1112basic_stringIcSt11char_traitsIcESaIcEEE@Base 0.2.0
 _ZN4Util19GenericAttributeMapC1Ev@Base 0.2.0
 _ZN4Util19GenericAttributeMapC2Ev@Base 0.2.0
 _ZN4Util19GenericAttributeMapD0Ev@Base 0.2.0
 _ZN4Util19GenericAttributeMapD1Ev@Base 0.2.0
 _ZN4Util19GenericAttributeMapD2Ev@Base 0.2.0
 _ZN4Util19composeDebugMessageERKNSt7__cxx1112basic_stringIcSt11char_traitsIcESaIcEEEPKci@Base 0.2.0
 _ZN4Util19unserializeGAStringINSt7__cxx1112basic_stringIcSt11char_traitsIcESaIcEEEEEPNS_16_StringAttributeIS6_EERKSt4pairIS6_PKNS_19GenericAttributeMapEE@Base 0.2.0
 _ZN4Util20GenericAttributeListC1Ev@Base 0.2.0
 _ZN4Util20GenericAttributeListC2Ev@Base 0.2.0
 _ZN4Util20GenericAttributeListD0Ev@Base 0.2.0
 _ZN4Util20GenericAttributeListD1Ev@Base 0.2.0
 _ZN4Util20GenericAttributeListD2Ev@Base 0.2.0
 _ZN4Util22AbstractBitmapStreamer10saveBitmapERKNS_6BitmapERSo@Base 0.2.0
 _ZN4Util29GenericAttributeSerialization11unserializeERKNSt7__cxx1112basic_stringIcSt11char_traitsIcESaIcEEE@Base 0.2.0
 _ZN4Util29GenericAttributeSerialization11unserializeERKNSt7__cxx1112basic_stringIcSt11char_traitsIcESaIcEEEPKNS_19GenericAttributeMapE@Base 0.2.0
 _ZN4Util29GenericAttributeSerialization20getSerializerFactoryB5cxx11Ev@Base 0.2.0
 _ZN4Util29GenericAttributeSerialization22getUnserializerFactoryB5cxx11Ev@Base 0.2.0
 _ZN4Util29GenericAttributeSerialization4initEv@Base 0.2.0
 _ZN4Util29GenericAttributeSerialization9serializeB5cxx11EPKNS_16GenericAttributeE@Base 0.2.0
 _ZN4Util29GenericAttributeSerialization9serializeB5cxx11EPKNS_16GenericAttributeEPKNS_19GenericAttributeMapE@Base 0.2.0
 _ZN4Util2UI10EventQueue20registerEventHandlerERKSt8functionIFbRKNS0_5EventEEE@Base 0.2.0
 _ZN4Util2UI10EventQueue22registerEventGeneratorERKSt8functionIFSt5dequeINS0_5EventESaIS4_EEvEE@Base 0.2.0
 _ZN4Util2UI10EventQueue6handleEv@Base 0.2.0
 _ZN4Util2UI10EventQueue7processEv@Base 0.2.0
 _ZN4Util2UI10EventQueue8generateEv@Base 0.2.0
 _ZN4Util2UI10EventQueue8popEventEv@Base 0.2.0
 _ZN4Util2UI10EventQueue9pushEventERKNS0_5EventE@Base 0.2.0
 _ZN4Util2UI10EventQueueD1Ev@Base 0.2.0
 _ZN4Util2UI10EventQueueD2Ev@Base 0.2.0
 _ZN4Util2UI12EventContext14handleKeyEventERKNS0_5EventE@Base 0.2.0
 _ZN4Util2UI12EventContextC1Ev@Base 0.2.0
 _ZN4Util2UI12EventContextC2Ev@Base 0.2.0
 _ZN4Util2UI12createCursorERKNS_9ReferenceINS_6BitmapEEEjj@Base 0.2.0
 _ZN4Util2UI12createWindowERKNS0_6Window10PropertiesE@Base 0.2.0
 _ZN4Util2UI13WindowX11Data13fixWindowSizeEii@Base 0.2.0
 _ZN4Util2UI13WindowX11Data13setWindowIconERKNS_6BitmapE@Base 0.2.0
 _ZN4Util2UI13WindowX11Data18removeWindowBorderEv@Base 0.2.0
 _ZN4Util2UI13WindowX11DataC1Ev@Base 0.2.0
 _ZN4Util2UI13WindowX11DataC2Ev@Base 0.2.0
 _ZN4Util2UI13WindowX11DataD1Ev@Base 0.2.0
 _ZN4Util2UI13WindowX11DataD2Ev@Base 0.2.0
 _ZN4Util2UI15SplashScreenX1111showMessageERKNSt7__cxx1112basic_stringIcSt11char_traitsIcESaIcEEE@Base 0.2.0
 _ZN4Util2UI15SplashScreenX1113removeMessageEv@Base 0.2.0
 _ZN4Util2UI15SplashScreenX119eventLoopEv@Base 0.2.0
 _ZN4Util2UI15SplashScreenX11C1ERKNSt7__cxx1112basic_stringIcSt11char_traitsIcESaIcEEERKNS_9ReferenceINS_6BitmapEEE@Base 0.2.0
 _ZN4Util2UI15SplashScreenX11C2ERKNSt7__cxx1112basic_stringIcSt11char_traitsIcESaIcEEERKNS_9ReferenceINS_6BitmapEEE@Base 0.2.0
 _ZN4Util2UI15SplashScreenX11D0Ev@Base 0.2.0
 _ZN4Util2UI15SplashScreenX11D1Ev@Base 0.2.0
 _ZN4Util2UI15SplashScreenX11D2Ev@Base 0.2.0
 _ZN4Util2UI18createSplashScreenERKNSt7__cxx1112basic_stringIcSt11char_traitsIcESaIcEEERKNS_9ReferenceINS_6BitmapEEE@Base 0.2.0
 _ZN4Util2UI6CursorC1ENS_9ReferenceINS_6BitmapEEEjj@Base 0.2.0
 _ZN4Util2UI6CursorC2ENS_9ReferenceINS_6BitmapEEEjj@Base 0.2.0
 _ZN4Util2UI6CursorD1Ev@Base 0.2.0
 _ZN4Util2UI6CursorD2Ev@Base 0.2.0
 _ZN4Util2UI9WindowEGL11swapBuffersEv@Base 0.2.0
 _ZN4Util2UI9WindowEGLC1ERKNS0_6Window10PropertiesE@Base 0.2.0
 _ZN4Util2UI9WindowEGLC2ERKNS0_6Window10PropertiesE@Base 0.2.0
 _ZN4Util2UI9WindowEGLD0Ev@Base 0.2.0
 _ZN4Util2UI9WindowEGLD1Ev@Base 0.2.0
 _ZN4Util2UI9WindowEGLD2Ev@Base 0.2.0
 _ZN4Util2UI9WindowGLX11swapBuffersEv@Base 0.2.0
 _ZN4Util2UI9WindowGLX13WindowGLXData11handleErrorEP9_XDisplayP11XErrorEvent@Base 0.2.0
 _ZN4Util2UI9WindowGLX13WindowGLXData13errorOccurredE@Base 0.2.0
 _ZN4Util2UI9WindowGLXC1ERKNS0_6Window10PropertiesE@Base 0.2.0
 _ZN4Util2UI9WindowGLXC2ERKNS0_6Window10PropertiesE@Base 0.2.0
 _ZN4Util2UI9WindowGLXD0Ev@Base 0.2.0
 _ZN4Util2UI9WindowGLXD1Ev@Base 0.2.0
 _ZN4Util2UI9WindowGLXD2Ev@Base 0.2.0
 _ZN4Util2UI9WindowSDL10warpCursorEii@Base 0.2.0
 _ZN4Util2UI9WindowSDL11doSetCursorEPKNS0_6CursorE@Base 0.2.0
 _ZN4Util2UI9WindowSDL11fetchEventsEv@Base 0.2.0
 _ZN4Util2UI9WindowSDL11swapBuffersEv@Base 0.2.0
 _ZN4Util2UI9WindowSDL11ungrabInputEv@Base 0.2.0
 _ZN4Util2UI9WindowSDL12doHideCursorEv@Base 0.2.0
 _ZN4Util2UI9WindowSDL16setClipboardTextERKNSt7__cxx1112basic_stringIcSt11char_traitsIcESaIcEEE@Base 0.2.0
 _ZN4Util2UI9WindowSDL7setIconERKNS_6BitmapE@Base 0.2.0
 _ZN4Util2UI9WindowSDL9grabInputEv@Base 0.2.0
 _ZN4Util2UI9WindowSDLC1ERKNS0_6Window10PropertiesE@Base 0.2.0
 _ZN4Util2UI9WindowSDLC2ERKNS0_6Window10PropertiesE@Base 0.2.0
 _ZN4Util2UI9WindowSDLD0Ev@Base 0.2.0
 _ZN4Util2UI9WindowSDLD1Ev@Base 0.2.0
 _ZN4Util2UI9WindowSDLD2Ev@Base 0.2.0
 _ZN4Util2UI9WindowX1110warpCursorEii@Base 0.2.0
 _ZN4Util2UI9WindowX1111doSetCursorEPKNS0_6CursorE@Base 0.2.0
 _ZN4Util2UI9WindowX1111fetchEventsEv@Base 0.2.0
 _ZN4Util2UI9WindowX1111ungrabInputEv@Base 0.2.0
 _ZN4Util2UI9WindowX1112doHideCursorEv@Base 0.2.0
 _ZN4Util2UI9WindowX1116setClipboardTextERKNSt7__cxx1112basic_stringIcSt11char_traitsIcESaIcEEE@Base 0.2.0
 _ZN4Util2UI9WindowX117setIconERKNS_6BitmapE@Base 0.2.0
 _ZN4Util2UI9WindowX119grabInputEv@Base 0.2.0
 _ZN4Util2UI9WindowX11C1ERKNS0_6Window10PropertiesE@Base 0.2.0
 _ZN4Util2UI9WindowX11C2ERKNS0_6Window10PropertiesE@Base 0.2.0
 _ZN4Util2UI9WindowX11D0Ev@Base 0.2.0
 _ZN4Util2UI9WindowX11D1Ev@Base 0.2.0
 _ZN4Util2UI9WindowX11D2Ev@Base 0.2.0
 _ZN4Util4infoE@Base 0.2.0
 _ZN4Util4initEv@Base 0.2.0
 _ZN4Util5Timer12processTimerE@Base 0.2.0
 _ZN4Util5Timer3nowEv@Base 0.2.0
 _ZN4Util5Timer4stopEv@Base 0.2.0
 _ZN4Util5Timer5resetEv@Base 0.2.0
 _ZN4Util5Timer6resumeEv@Base 0.2.0
 _ZN4Util5TimerC1Ev@Base 0.2.0
 _ZN4Util5TimerC2Ev@Base 0.2.0
 _ZN4Util5Utils11getCPUUsageEm@Base 0.2.0
 _ZN4Util5Utils12getBacktraceB5cxx11Ev@Base 0.2.0
 _ZN4Util5Utils12getProcessIdEv@Base 0.2.0
 _ZN4Util5Utils14getIOBytesReadEv@Base 0.2.0
 _ZN4Util5Utils15createTimeStampB5cxx11Ev@Base 0.2.0
 _ZN4Util5Utils15outputProcessIOEv@Base 0.2.0
 _ZN4Util5Utils17getExecutablePathB5cxx11Ev@Base 0.2.0
 _ZN4Util5Utils17getIOBytesWrittenEv@Base 0.2.0
 _ZN4Util5Utils19outputProcessMemoryEv@Base 0.2.0
 _ZN4Util5Utils20getVirtualMemorySizeEv@Base 0.2.0
 _ZN4Util5Utils22getAllocatedMemorySizeEv@Base 0.2.0
 _ZN4Util5Utils24getResidentSetMemorySizeEv@Base 0.2.0
 _ZN4Util5Utils5sleepEm@Base 0.2.0
 _ZN4Util6Bitmap14flipVerticallyEv@Base 0.2.0
 _ZN4Util6Bitmap4swapERS0_@Base 0.2.0
 _ZN4Util6Bitmap7setDataERKSt6vectorIhSaIhEE@Base 0.2.0
 _ZN4Util6Bitmap8swapDataERSt6vectorIhSaIhEE@Base 0.2.0
 _ZN4Util6BitmapC1ERKS0_@Base 0.2.0
 _ZN4Util6BitmapC1EjjNS_11PixelFormatE@Base 0.2.0
 _ZN4Util6BitmapC1Ejjm@Base 0.2.0
 _ZN4Util6BitmapC2ERKS0_@Base 0.2.0
 _ZN4Util6BitmapC2EjjNS_11PixelFormatE@Base 0.2.0
 _ZN4Util6BitmapC2Ejjm@Base 0.2.0
 _ZN4Util6outputENS_17output_priority_tERKNSt7__cxx1112basic_stringIcSt11char_traitsIcESaIcEEE@Base 0.2.0
 _ZN4Util7Archive3dirERKNSt7__cxx1112basic_stringIcSt11char_traitsIcESaIcEEERNS1_4listINS_8FileNameESaISA_EEEh@Base 0.2.0
 _ZN4Util7FactoryIPNS_18AbstractFSProviderENSt7__cxx1112basic_stringIcSt11char_traitsIcESaIcEEESt8functionIFS2_vEENS_16FallbackPolicies12NULLFallbackEE6createERKS8_@Base 0.2.0
 _ZN4Util7FactoryIPNS_18AbstractFSProviderENSt7__cxx1112basic_stringIcSt11char_traitsIcESaIcEEESt8functionIFS2_vEENS_16FallbackPolicies12NULLFallbackEED1Ev@Base 0.2.0
 _ZN4Util7FactoryIPNS_18AbstractFSProviderENSt7__cxx1112basic_stringIcSt11char_traitsIcESaIcEEESt8functionIFS2_vEENS_16FallbackPolicies12NULLFallbackEED2Ev@Base 0.2.0
 _ZN4Util7FactoryIPNS_22AbstractBitmapStreamerENSt7__cxx1112basic_stringIcSt11char_traitsIcESaIcEEESt8functionIFS2_vEENS_16FallbackPolicies12NULLFallbackEE6createERKS8_@Base 0.2.0
 _ZN4Util7FactoryIPNS_22AbstractBitmapStreamerENSt7__cxx1112basic_stringIcSt11char_traitsIcESaIcEEESt8functionIFS2_vEENS_16FallbackPolicies12NULLFallbackEED1Ev@Base 0.2.0
 _ZN4Util7FactoryIPNS_22AbstractBitmapStreamerENSt7__cxx1112basic_stringIcSt11char_traitsIcESaIcEEESt8functionIFS2_vEENS_16FallbackPolicies12NULLFallbackEED2Ev@Base 0.2.0
 _ZN4Util7Generic7StorageINSt7__cxx1112basic_stringIcSt11char_traitsIcESaIcEEEED0Ev@Base 0.2.0
 _ZN4Util7Generic7StorageINSt7__cxx1112basic_stringIcSt11char_traitsIcESaIcEEEED1Ev@Base 0.2.0
 _ZN4Util7Generic7StorageINSt7__cxx1112basic_stringIcSt11char_traitsIcESaIcEEEED2Ev@Base 0.2.0
 _ZN4Util7Generic7StorageISt13unordered_mapINS_16StringIdentifierES0_St4hashIS3_ESt8equal_toIS3_ESaISt4pairIKS3_S0_EEEED0Ev@Base 0.2.0
 _ZN4Util7Generic7StorageISt13unordered_mapINS_16StringIdentifierES0_St4hashIS3_ESt8equal_toIS3_ESaISt4pairIKS3_S0_EEEED1Ev@Base 0.2.0
 _ZN4Util7Generic7StorageISt13unordered_mapINS_16StringIdentifierES0_St4hashIS3_ESt8equal_toIS3_ESaISt4pairIKS3_S0_EEEED2Ev@Base 0.2.0
 _ZN4Util7Generic7StorageISt6vectorIS0_SaIS0_EEED0Ev@Base 0.2.0
 _ZN4Util7Generic7StorageISt6vectorIS0_SaIS0_EEED1Ev@Base 0.2.0
 _ZN4Util7Generic7StorageISt6vectorIS0_SaIS0_EEED2Ev@Base 0.2.0
 _ZN4Util7Generic7StorageIbED0Ev@Base 0.2.0
 _ZN4Util7Generic7StorageIbED1Ev@Base 0.2.0
 _ZN4Util7Generic7StorageIbED2Ev@Base 0.2.0
 _ZN4Util7Generic7StorageIcED0Ev@Base 0.2.0
 _ZN4Util7Generic7StorageIcED1Ev@Base 0.2.0
 _ZN4Util7Generic7StorageIcED2Ev@Base 0.2.0
 _ZN4Util7Generic7StorageIdED0Ev@Base 0.2.0
 _ZN4Util7Generic7StorageIdED1Ev@Base 0.2.0
 _ZN4Util7Generic7StorageIdED2Ev@Base 0.2.0
 _ZN4Util7Generic7StorageIfED0Ev@Base 0.2.0
 _ZN4Util7Generic7StorageIfED1Ev@Base 0.2.0
 _ZN4Util7Generic7StorageIfED2Ev@Base 0.2.0
 _ZN4Util7Generic7StorageIhED0Ev@Base 0.2.0
 _ZN4Util7Generic7StorageIhED1Ev@Base 0.2.0
 _ZN4Util7Generic7StorageIhED2Ev@Base 0.2.0
 _ZN4Util7Generic7StorageIiED0Ev@Base 0.2.0
 _ZN4Util7Generic7StorageIiED1Ev@Base 0.2.0
 _ZN4Util7Generic7StorageIiED2Ev@Base 0.2.0
 _ZN4Util7Generic7StorageIjED0Ev@Base 0.2.0
 _ZN4Util7Generic7StorageIjED1Ev@Base 0.2.0
 _ZN4Util7Generic7StorageIjED2Ev@Base 0.2.0
 _ZN4Util7Generic7StorageIlED0Ev@Base 0.2.0
 _ZN4Util7Generic7StorageIlED1Ev@Base 0.2.0
 _ZN4Util7Generic7StorageIlED2Ev@Base 0.2.0
 _ZN4Util7Generic7StorageImED0Ev@Base 0.2.0
 _ZN4Util7Generic7StorageImED1Ev@Base 0.2.0
 _ZN4Util7Generic7StorageImED2Ev@Base 0.2.0
 _ZN4Util7Generic7StorageIsED0Ev@Base 0.2.0
 _ZN4Util7Generic7StorageIsED1Ev@Base 0.2.0
 _ZN4Util7Generic7StorageIsED2Ev@Base 0.2.0
 _ZN4Util7Generic7StorageItED0Ev@Base 0.2.0
 _ZN4Util7Generic7StorageItED1Ev@Base 0.2.0
 _ZN4Util7Generic7StorageItED2Ev@Base 0.2.0
 _ZN4Util7Network10toSockaddrERKNS0_11IPv4AddressE@Base 0.2.0
 _ZN4Util7Network11IPv4Address11resolveHostERKNSt7__cxx1112basic_stringIcSt11char_traitsIcESaIcEEEt@Base 0.2.0
 _ZN4Util7Network11IPv4Address7setHostEj@Base 0.2.0
 _ZN4Util7Network11IPv4Address7setPortEt@Base 0.2.0
 _ZN4Util7Network11IPv4AddressC1ERKNS0_25InternalIPv4AddressData_tE@Base 0.2.0
 _ZN4Util7Network11IPv4AddressC1ERKS1_@Base 0.2.0
 _ZN4Util7Network11IPv4AddressC1Ejt@Base 0.2.0
 _ZN4Util7Network11IPv4AddressC1Ev@Base 0.2.0
 _ZN4Util7Network11IPv4AddressC2ERKNS0_25InternalIPv4AddressData_tE@Base 0.2.0
 _ZN4Util7Network11IPv4AddressC2ERKS1_@Base 0.2.0
 _ZN4Util7Network11IPv4AddressC2Ejt@Base 0.2.0
 _ZN4Util7Network11IPv4AddressC2Ev@Base 0.2.0
 _ZN4Util7Network11IPv4AddressD1Ev@Base 0.2.0
 _ZN4Util7Network11IPv4AddressD2Ev@Base 0.2.0
 _ZN4Util7Network11IPv4AddressaSERKS1_@Base 0.2.0
 _ZN4Util7Network12fromSockaddrERK11sockaddr_in@Base 0.2.0
 _ZN4Util7Network13TCPConnection10sendStringERKNSt7__cxx1112basic_stringIcSt11char_traitsIcESaIcEEE@Base 0.2.0
 _ZN4Util7Network13TCPConnection11receiveDataEm@Base 0.2.0
 _ZN4Util7Network13TCPConnection11receiveDataEv@Base 0.2.0
 _ZN4Util7Network13TCPConnection13receiveStringB5cxx11Ec@Base 0.2.0
 _ZN4Util7Network13TCPConnection22extractDataFromInQueueEm@Base 0.2.0
 _ZN4Util7Network13TCPConnection3runEv@Base 0.2.0
 _ZN4Util7Network13TCPConnection5closeEv@Base 0.2.0
 _ZN4Util7Network13TCPConnection7connectERKNS0_11IPv4AddressE@Base 0.2.0
 _ZN4Util7Network13TCPConnection8sendDataERKSt6vectorIhSaIhEE@Base 0.2.0
 _ZN4Util7Network13TCPConnectionC1EPNS1_14ImplementationE@Base 0.2.0
 _ZN4Util7Network13TCPConnectionC2EPNS1_14ImplementationE@Base 0.2.0
 _ZN4Util7Network13TCPConnectionD0Ev@Base 0.2.0
 _ZN4Util7Network13TCPConnectionD1Ev@Base 0.2.0
 _ZN4Util7Network13TCPConnectionD2Ev@Base 0.2.0
 _ZN4Util7Network14DataConnection16FALLBACK_HANDLERE@Base 0.2.0
 _ZN4Util7Network14DataConnection18handleIncomingDataEf@Base 0.2.0
 _ZN4Util7Network14DataConnection3runEv@Base 0.2.0
 _ZN4Util7Network14DataConnection5closeEv@Base 0.2.0
 _ZN4Util7Network14DataConnection9dataErrorEv@Base 0.2.0
 _ZN4Util7Network14DataConnectionC1EPNS0_13TCPConnectionE@Base 0.2.0
 _ZN4Util7Network14DataConnectionC2EPNS0_13TCPConnectionE@Base 0.2.0
 _ZN4Util7Network14DataConnectionD1Ev@Base 0.2.0
 _ZN4Util7Network14DataConnectionD2Ev@Base 0.2.0
 _ZN4Util7Network16UDPNetworkSocket10sendStringERKNSt7__cxx1112basic_stringIcSt11char_traitsIcESaIcEEE@Base 0.2.0
 _ZN4Util7Network16UDPNetworkSocket12removeTargetERKNS0_11IPv4AddressE@Base 0.2.0
 _ZN4Util7Network16UDPNetworkSocket4openEv@Base 0.2.0
 _ZN4Util7Network16UDPNetworkSocket5closeEv@Base 0.2.0
 _ZN4Util7Network16UDPNetworkSocket7receiveEv@Base 0.2.0
 _ZN4Util7Network16UDPNetworkSocket8sendDataEPKhm@Base 0.2.0
 _ZN4Util7Network16UDPNetworkSocket8sendDataEPKhmRKNS0_11IPv4AddressE@Base 0.2.0
 _ZN4Util7Network16UDPNetworkSocket9addTargetERKNS0_11IPv4AddressE@Base 0.2.0
 _ZN4Util7Network16UDPNetworkSocketC1Eti@Base 0.2.0
 _ZN4Util7Network16UDPNetworkSocketC2Eti@Base 0.2.0
 _ZN4Util7Network16UDPNetworkSocketD0Ev@Base 0.2.0
 _ZN4Util7Network16UDPNetworkSocketD1Ev@Base 0.2.0
 _ZN4Util7Network16UDPNetworkSocketD2Ev@Base 0.2.0
 _ZN4Util7Network17ClockSynchronizer12createClientERKNS0_11IPv4AddressE@Base 0.2.0
 _ZN4Util7Network17ClockSynchronizer12createServerEt@Base 0.2.0
 _ZN4Util7Network17ClockSynchronizer5closeEv@Base 0.2.0
 _ZN4Util7Network17ClockSynchronizer9runClientEv@Base 0.2.0
 _ZN4Util7Network17ClockSynchronizer9runServerEv@Base 0.2.0
 _ZN4Util7Network17ClockSynchronizerC1EbPNS0_16UDPNetworkSocketE@Base 0.2.0
 _ZN4Util7Network17ClockSynchronizerC2EbPNS0_16UDPNetworkSocketE@Base 0.2.0
 _ZN4Util7Network17ClockSynchronizerD1Ev@Base 0.2.0
 _ZN4Util7Network17ClockSynchronizerD2Ev@Base 0.2.0
 _ZN4Util7Network22createUDPNetworkSocketEti@Base 0.2.0
 _ZN4Util7Network4initEv@Base 0.2.0
 _ZN4Util7Network9TCPServer21getIncomingConnectionEv@Base 0.2.0
 _ZN4Util7Network9TCPServer3runEv@Base 0.2.0
 _ZN4Util7Network9TCPServer5closeEv@Base 0.2.0
 _ZN4Util7Network9TCPServer6createEt@Base 0.2.0
 _ZN4Util7Network9TCPServerC1EPNS1_14ImplementationE@Base 0.2.0
 _ZN4Util7Network9TCPServerC2EPNS1_14ImplementationE@Base 0.2.0
 _ZN4Util7Network9TCPServerD0Ev@Base 0.2.0
 _ZN4Util7Network9TCPServerD1Ev@Base 0.2.0
 _ZN4Util7Network9TCPServerD2Ev@Base 0.2.0
 _ZN4Util8FileName13createDirNameERKNSt7__cxx1112basic_stringIcSt11char_traitsIcESaIcEEE@Base 0.2.0
 _ZN4Util8FileName5parseERKNSt7__cxx1112basic_stringIcSt11char_traitsIcESaIcEEE@Base 0.2.0
 _ZN4Util8FileName9setEndingERKNSt7__cxx1112basic_stringIcSt11char_traitsIcESaIcEEE@Base 0.2.0
 _ZN4Util8FileNameD1Ev@Base 0.2.0
 _ZN4Util8FileNameD2Ev@Base 0.2.0
 _ZN4Util8MicroXML6Reader8traverseERSiRKSt8functionIFbRKNSt7__cxx1112basic_stringIcSt11char_traitsIcESaIcEEERKSt13unordered_mapIS9_S9_St4hashIS9_ESt8equal_toIS9_ESaISt4pairISA_S9_EEEEERKS3_IFbSB_EERKS3_IFbSB_SB_EE@Base 0.2.0
 _ZN4Util8calcHashEPKhm@Base 0.2.0
 _ZN4Util9FileUtils14openForReadingERKNS_8FileNameE@Base 0.2.0
 _ZN4Util9FileUtils14openForWritingERKNS_8FileNameE@Base 0.2.0
 _ZN4Util9FileUtils15getFileContentsB5cxx11ERKNS_8FileNameE@Base 0.2.0
 _ZN4Util9FileUtils16openForAppendingERKNS_8FileNameE@Base 0.2.0
 _ZN4Util9FileUtils18registerFSProviderERKNSt7__cxx1112basic_stringIcSt11char_traitsIcESaIcEEESt8functionIFPNS_18AbstractFSProviderEvEE@Base 0.2.0
 _ZN4Util9FileUtils21getParsedFileContentsB5cxx11ERKNS_8FileNameE@Base 0.2.0
 _ZN4Util9FileUtils22makeRelativeIfPossibleERKNS_8FileNameERS1_@Base 0.2.0
 _ZN4Util9FileUtils23generateNewRandFilenameERKNS_8FileNameERKNSt7__cxx1112basic_stringIcSt11char_traitsIcESaIcEEESB_i@Base 0.2.0
 _ZN4Util9FileUtils3dirERKNS_8FileNameERNSt7__cxx114listIS1_SaIS1_EEEh@Base 0.2.0
 _ZN4Util9FileUtils4openERKNS_8FileNameE@Base 0.2.0
 _ZN4Util9FileUtils5flushERKNS_8FileNameE@Base 0.2.0
 _ZN4Util9FileUtils5isDirERKNS_8FileNameE@Base 0.2.0
 _ZN4Util9FileUtils6isFileERKNS_8FileNameE@Base 0.2.0
 _ZN4Util9FileUtils6removeERKNS_8FileNameEb@Base 0.2.0
 _ZN4Util9FileUtils8copyFileERKNS_8FileNameES3_@Base 0.2.0
 _ZN4Util9FileUtils8fileSizeERKNS_8FileNameE@Base 0.2.0
 _ZN4Util9FileUtils8findFileERKNS_8FileNameERKSt6vectorINSt7__cxx1112basic_stringIcSt11char_traitsIcESaIcEEESaISA_EERS1_@Base 0.2.0
 _ZN4Util9FileUtils8loadFileERKNS_8FileNameE@Base 0.2.0
 _ZN4Util9FileUtils8saveFileERKNS_8FileNameERKSt6vectorIhSaIhEEb@Base 0.2.0
 _ZN4Util9FileUtils9createDirERKNS_8FileNameEb@Base 0.2.0
 _ZN4UtilplERKNSt7__cxx1112basic_stringIcSt11char_traitsIcESaIcEEERKNS_8FileNameE@Base 0.2.0
 _ZNK4Util11FileLocator10locateFileERKNS_8FileNameE@Base 0.2.0
 _ZNK4Util13BoolAttribute13toUnsignedIntEv@Base 0.2.0
 _ZNK4Util13BoolAttribute5cloneEv@Base 0.2.0
 _ZNK4Util13BoolAttribute5toIntEv@Base 0.2.0
 _ZNK4Util13BoolAttribute6toBoolEv@Base 0.2.0
 _ZNK4Util13BoolAttribute6toJSONB5cxx11Ev@Base 0.2.0
 _ZNK4Util13BoolAttribute7toFloatEv@Base 0.2.0
 _ZNK4Util13BoolAttribute8toDoubleEv@Base 0.2.0
 _ZNK4Util13BoolAttribute8toStringB5cxx11Ev@Base 0.2.0
 _ZNK4Util13BoolAttributeeqERKNS_16GenericAttributeE@Base 0.2.0
 _ZNK4Util13PixelAccessor4cropERjS1_S1_S1_@Base 0.2.0
 _ZNK4Util14NoiseGenerator3getEfff@Base 0.2.0
 _ZNK4Util14PixelAccessorF13doReadColor4fEjj@Base 0.2.0
 _ZNK4Util14PixelAccessorF14doReadColor4ubEjj@Base 0.2.0
 _ZNK4Util14PixelAccessorF21doReadSingleValueByteEjj@Base 0.2.0
 _ZNK4Util14PixelAccessorF22doReadSingleValueFloatEjj@Base 0.2.0
 _ZNK4Util15PixelAccessorUb13doReadColor4fEjj@Base 0.2.0
 _ZNK4Util15PixelAccessorUb14doReadColor4ubEjj@Base 0.2.0
 _ZNK4Util15PixelAccessorUb21doReadSingleValueByteEjj@Base 0.2.0
 _ZNK4Util15PixelAccessorUb22doReadSingleValueFloatEjj@Base 0.2.0
 _ZNK4Util16FallbackPolicies17ExceptionFallbackIPNS_16GenericAttributeENSt7__cxx1112basic_stringIcSt11char_traitsIcESaIcEEEE9Exception4whatEv@Base 0.2.0
 _ZNK4Util16FallbackPolicies17ExceptionFallbackISt4pairINSt7__cxx1112basic_stringIcSt11char_traitsIcESaIcEEES8_ESt10type_indexE9Exception4whatEv@Base 0.2.0
 _ZNK4Util16GenericAttribute13toUnsignedIntEv@Base 0.2.0
 _ZNK4Util16GenericAttribute5toIntEv@Base 0.2.0
 _ZNK4Util16GenericAttribute6toBoolEv@Base 0.2.0
 _ZNK4Util16GenericAttribute6toJSONB5cxx11Ev@Base 0.2.0
 _ZNK4Util16GenericAttribute7toFloatEv@Base 0.2.0
 _ZNK4Util16GenericAttribute8toDoubleEv@Base 0.2.0
 _ZNK4Util16GenericAttribute8toStringB5cxx11Ev@Base 0.2.0
 _ZNK4Util16GenericAttributeeqERKS0_@Base 0.2.0
 _ZNK4Util16PixelAccessor4ub13doReadColor4fEjj@Base 0.2.0
 _ZNK4Util16PixelAccessor4ub14doReadColor4ubEjj@Base 0.2.0
 _ZNK4Util16PixelAccessor4ub21doReadSingleValueByteEjj@Base 0.2.0
 _ZNK4Util16PixelAccessor4ub22doReadSingleValueFloatEjj@Base 0.2.0
 _ZNK4Util16PixelAccessorI3213doReadColor4fEjj@Base 0.2.0
 _ZNK4Util16PixelAccessorI3214doReadColor4ubEjj@Base 0.2.0
 _ZNK4Util16PixelAccessorI3221doReadSingleValueByteEjj@Base 0.2.0
 _ZNK4Util16PixelAccessorI3222doReadSingleValueFloatEjj@Base 0.2.0
 _ZNK4Util16PixelAccessorU3213doReadColor4fEjj@Base 0.2.0
 _ZNK4Util16PixelAccessorU3214doReadColor4ubEjj@Base 0.2.0
 _ZNK4Util16PixelAccessorU3221doReadSingleValueByteEjj@Base 0.2.0
 _ZNK4Util16PixelAccessorU3222doReadSingleValueFloatEjj@Base 0.2.0
 _ZNK4Util16StringIdentifier8toStringB5cxx11Ev@Base 0.2.0
 _ZNK4Util16WrapperAttributeIPvE5cloneEv@Base 0.2.0
 _ZNK4Util16_NumberAttributeIcE13toUnsignedIntEv@Base 0.2.0
 _ZNK4Util16_NumberAttributeIcE5cloneEv@Base 0.2.0
 _ZNK4Util16_NumberAttributeIcE5toIntEv@Base 0.2.0
 _ZNK4Util16_NumberAttributeIcE6toJSONB5cxx11Ev@Base 0.2.0
 _ZNK4Util16_NumberAttributeIcE7toFloatEv@Base 0.2.0
 _ZNK4Util16_NumberAttributeIcE8toDoubleEv@Base 0.2.0
 _ZNK4Util16_NumberAttributeIcE8toStringB5cxx11Ev@Base 0.2.0
 _ZNK4Util16_NumberAttributeIcEeqERKNS_16GenericAttributeE@Base 0.2.0
 _ZNK4Util16_NumberAttributeIdE13toUnsignedIntEv@Base 0.2.0
 _ZNK4Util16_NumberAttributeIdE5cloneEv@Base 0.2.0
 _ZNK4Util16_NumberAttributeIdE5toIntEv@Base 0.2.0
 _ZNK4Util16_NumberAttributeIdE6toJSONB5cxx11Ev@Base 0.2.0
 _ZNK4Util16_NumberAttributeIdE7toFloatEv@Base 0.2.0
 _ZNK4Util16_NumberAttributeIdE8toDoubleEv@Base 0.2.0
 _ZNK4Util16_NumberAttributeIdE8toStringB5cxx11Ev@Base 0.2.0
 _ZNK4Util16_NumberAttributeIdEeqERKNS_16GenericAttributeE@Base 0.2.0
 _ZNK4Util16_NumberAttributeIfE13toUnsignedIntEv@Base 0.2.0
 _ZNK4Util16_NumberAttributeIfE5cloneEv@Base 0.2.0
 _ZNK4Util16_NumberAttributeIfE5toIntEv@Base 0.2.0
 _ZNK4Util16_NumberAttributeIfE6toJSONB5cxx11Ev@Base 0.2.0
 _ZNK4Util16_NumberAttributeIfE7toFloatEv@Base 0.2.0
 _ZNK4Util16_NumberAttributeIfE8toDoubleEv@Base 0.2.0
 _ZNK4Util16_NumberAttributeIfE8toStringB5cxx11Ev@Base 0.2.0
 _ZNK4Util16_NumberAttributeIfEeqERKNS_16GenericAttributeE@Base 0.2.0
 _ZNK4Util16_NumberAttributeIhE13toUnsignedIntEv@Base 0.2.0
 _ZNK4Util16_NumberAttributeIhE5cloneEv@Base 0.2.0
 _ZNK4Util16_NumberAttributeIhE5toIntEv@Base 0.2.0
 _ZNK4Util16_NumberAttributeIhE6toJSONB5cxx11Ev@Base 0.2.0
 _ZNK4Util16_NumberAttributeIhE7toFloatEv@Base 0.2.0
 _ZNK4Util16_NumberAttributeIhE8toDoubleEv@Base 0.2.0
 _ZNK4Util16_NumberAttributeIhE8toStringB5cxx11Ev@Base 0.2.0
 _ZNK4Util16_NumberAttributeIhEeqERKNS_16GenericAttributeE@Base 0.2.0
 _ZNK4Util16_NumberAttributeIiE13toUnsignedIntEv@Base 0.2.0
 _ZNK4Util16_NumberAttributeIiE5cloneEv@Base 0.2.0
 _ZNK4Util16_NumberAttributeIiE5toIntEv@Base 0.2.0
 _ZNK4Util16_NumberAttributeIiE6toJSONB5cxx11Ev@Base 0.2.0
 _ZNK4Util16_NumberAttributeIiE7toFloatEv@Base 0.2.0
 _ZNK4Util16_NumberAttributeIiE8toDoubleEv@Base 0.2.0
 _ZNK4Util16_NumberAttributeIiE8toStringB5cxx11Ev@Base 0.2.0
 _ZNK4Util16_NumberAttributeIiEeqERKNS_16GenericAttributeE@Base 0.2.0
 _ZNK4Util16_NumberAttributeIjE13toUnsignedIntEv@Base 0.2.0
 _ZNK4Util16_NumberAttributeIjE5cloneEv@Base 0.2.0
 _ZNK4Util16_NumberAttributeIjE5toIntEv@Base 0.2.0
 _ZNK4Util16_NumberAttributeIjE6toJSONB5cxx11Ev@Base 0.2.0
 _ZNK4Util16_NumberAttributeIjE7toFloatEv@Base 0.2.0
 _ZNK4Util16_NumberAttributeIjE8toDoubleEv@Base 0.2.0
 _ZNK4Util16_NumberAttributeIjE8toStringB5cxx11Ev@Base 0.2.0
 _ZNK4Util16_NumberAttributeIjEeqERKNS_16GenericAttributeE@Base 0.2.0
 _ZNK4Util16_NumberAttributeIlE13toUnsignedIntEv@Base 0.2.0
 _ZNK4Util16_NumberAttributeIlE5cloneEv@Base 0.2.0
 _ZNK4Util16_NumberAttributeIlE5toIntEv@Base 0.2.0
 _ZNK4Util16_NumberAttributeIlE6toJSONB5cxx11Ev@Base 0.2.0
 _ZNK4Util16_NumberAttributeIlE7toFloatEv@Base 0.2.0
 _ZNK4Util16_NumberAttributeIlE8toDoubleEv@Base 0.2.0
 _ZNK4Util16_NumberAttributeIlE8toStringB5cxx11Ev@Base 0.2.0
 _ZNK4Util16_NumberAttributeIlEeqERKNS_16GenericAttributeE@Base 0.2.0
 _ZNK4Util16_NumberAttributeImE13toUnsignedIntEv@Base 0.2.0
 _ZNK4Util16_NumberAttributeImE5cloneEv@Base 0.2.0
 _ZNK4Util16_NumberAttributeImE5toIntEv@Base 0.2.0
 _ZNK4Util16_NumberAttributeImE6toJSONB5cxx11Ev@Base 0.2.0
 _ZNK4Util16_NumberAttributeImE7toFloatEv@Base 0.2.0
 _ZNK4Util16_NumberAttributeImE8toDoubleEv@Base 0.2.0
 _ZNK4Util16_NumberAttributeImE8toStringB5cxx11Ev@Base 0.2.0
 _ZNK4Util16_NumberAttributeImEeqERKNS_16GenericAttributeE@Base 0.2.0
 _ZNK4Util16_NumberAttributeIsE13toUnsignedIntEv@Base 0.2.0
 _ZNK4Util16_NumberAttributeIsE5cloneEv@Base 0.2.0
 _ZNK4Util16_NumberAttributeIsE5toIntEv@Base 0.2.0
 _ZNK4Util16_NumberAttributeIsE6toJSONB5cxx11Ev@Base 0.2.0
 _ZNK4Util16_NumberAttributeIsE7toFloatEv@Base 0.2.0
 _ZNK4Util16_NumberAttributeIsE8toDoubleEv@Base 0.2.0
 _ZNK4Util16_NumberAttributeIsE8toStringB5cxx11Ev@Base 0.2.0
 _ZNK4Util16_NumberAttributeIsEeqERKNS_16GenericAttributeE@Base 0.2.0
 _ZNK4Util16_NumberAttributeItE13toUnsignedIntEv@Base 0.2.0
 _ZNK4Util16_NumberAttributeItE5cloneEv@Base 0.2.0
 _ZNK4Util16_NumberAttributeItE5toIntEv@Base 0.2.0
 _ZNK4Util16_NumberAttributeItE6toJSONB5cxx11Ev@Base 0.2.0
 _ZNK4Util16_NumberAttributeItE7toFloatEv@Base 0.2.0
 _ZNK4Util16_NumberAttributeItE8toDoubleEv@Base 0.2.0
 _ZNK4Util16_NumberAttributeItE8toStringB5cxx11Ev@Base 0.2.0
 _ZNK4Util16_NumberAttributeItEeqERKNS_16GenericAttributeE@Base 0.2.0
 _ZNK4Util16_StringAttributeINSt7__cxx1112basic_stringIcSt11char_traitsIcESaIcEEEE13toUnsignedIntEv@Base 0.2.0
 _ZNK4Util16_StringAttributeINSt7__cxx1112basic_stringIcSt11char_traitsIcESaIcEEEE5cloneEv@Base 0.2.0
 _ZNK4Util16_StringAttributeINSt7__cxx1112basic_stringIcSt11char_traitsIcESaIcEEEE5toIntEv@Base 0.2.0
 _ZNK4Util16_StringAttributeINSt7__cxx1112basic_stringIcSt11char_traitsIcESaIcEEEE6toBoolEv@Base 0.2.0
 _ZNK4Util16_StringAttributeINSt7__cxx1112basic_stringIcSt11char_traitsIcESaIcEEEE6toJSONB5cxx11Ev@Base 0.2.0
 _ZNK4Util16_StringAttributeINSt7__cxx1112basic_stringIcSt11char_traitsIcESaIcEEEE7toFloatEv@Base 0.2.0
 _ZNK4Util16_StringAttributeINSt7__cxx1112basic_stringIcSt11char_traitsIcESaIcEEEE8toDoubleEv@Base 0.2.0
 _ZNK4Util16_StringAttributeINSt7__cxx1112basic_stringIcSt11char_traitsIcESaIcEEEE8toStringB5cxx11Ev@Base 0.2.0
 _ZNK4Util16_StringAttributeINSt7__cxx1112basic_stringIcSt11char_traitsIcESaIcEEEEeqERKNS_16GenericAttributeE@Base 0.2.0
 _ZNK4Util19GenericAttributeMap5cloneEv@Base 0.2.0
 _ZNK4Util19GenericAttributeMap6toJSONB5cxx11Ev@Base 0.2.0
 _ZNK4Util19GenericAttributeMap8containsERKNS_16StringIdentifierE@Base 0.2.0
 _ZNK4Util19GenericAttributeMap8getValueERKNS_16StringIdentifierE@Base 0.2.0
 _ZNK4Util19GenericAttributeMap8toStringB5cxx11Ev@Base 0.2.0
 _ZNK4Util19GenericAttributeMap9getStringERKNS_16StringIdentifierERKNSt7__cxx1112basic_stringIcSt11char_traitsIcESaIcEEE@Base 0.2.0
 _ZNK4Util19GenericAttributeMapeqERKNS_16GenericAttributeE@Base 0.2.0
 _ZNK4Util20GenericAttributeList2atEi@Base 0.2.0
 _ZNK4Util20GenericAttributeList5cloneEv@Base 0.2.0
 _ZNK4Util20GenericAttributeList6toJSONB5cxx11Ev@Base 0.2.0
 _ZNK4Util20GenericAttributeList7implodeERKNSt7__cxx1112basic_stringIcSt11char_traitsIcESaIcEEE@Base 0.2.0
 _ZNK4Util20GenericAttributeList8toStringB5cxx11Ev@Base 0.2.0
 _ZNK4Util20GenericAttributeListeqERKNS_16GenericAttributeE@Base 0.2.0
 _ZNK4Util2UI10EventQueue21getNumEventsAvailableEv@Base 0.2.0
 _ZNK4Util2UI10EventQueue9peekEventEv@Base 0.2.0
 _ZNK4Util2UI12EventContext12isKeyPressedENS0_3KeyE@Base 0.2.0
 _ZNK4Util2UI6Window15getSwapIntervalEv@Base 0.2.0
 _ZNK4Util2UI9WindowGLX15getSwapIntervalEv@Base 0.2.0
 _ZNK4Util2UI9WindowSDL15getSwapIntervalEv@Base 0.2.0
 _ZNK4Util2UI9WindowSDL16getClipboardTextB5cxx11Ev@Base 0.2.0
 _ZNK4Util2UI9WindowX1116getClipboardTextB5cxx11Ev@Base 0.2.0
 _ZNK4Util5Timer14getNanosecondsEv@Base 0.2.0
 _ZNK4Util7Generic7StorageINSt7__cxx1112basic_stringIcSt11char_traitsIcESaIcEEEE5cloneEv@Base 0.2.0
 _ZNK4Util7Generic7StorageISt13unordered_mapINS_16StringIdentifierES0_St4hashIS3_ESt8equal_toIS3_ESaISt4pairIKS3_S0_EEEE5cloneEv@Base 0.2.0
 _ZNK4Util7Generic7StorageISt6vectorIS0_SaIS0_EEE5cloneEv@Base 0.2.0
 _ZNK4Util7Generic7StorageIbE5cloneEv@Base 0.2.0
 _ZNK4Util7Generic7StorageIcE5cloneEv@Base 0.2.0
 _ZNK4Util7Generic7StorageIdE5cloneEv@Base 0.2.0
 _ZNK4Util7Generic7StorageIfE5cloneEv@Base 0.2.0
 _ZNK4Util7Generic7StorageIhE5cloneEv@Base 0.2.0
 _ZNK4Util7Generic7StorageIiE5cloneEv@Base 0.2.0
 _ZNK4Util7Generic7StorageIjE5cloneEv@Base 0.2.0
 _ZNK4Util7Generic7StorageIlE5cloneEv@Base 0.2.0
 _ZNK4Util7Generic7StorageImE5cloneEv@Base 0.2.0
 _ZNK4Util7Generic7StorageIsE5cloneEv@Base 0.2.0
 _ZNK4Util7Generic7StorageItE5cloneEv@Base 0.2.0
 _ZNK4Util7Network11IPv4Address15getHostAsStringB5cxx11Ev@Base 0.2.0
 _ZNK4Util7Network11IPv4Address7getDataEv@Base 0.2.0
 _ZNK4Util7Network11IPv4Address7getHostEv@Base 0.2.0
 _ZNK4Util7Network11IPv4Address7getPortEv@Base 0.2.0
 _ZNK4Util7Network11IPv4Address7isValidEv@Base 0.2.0
 _ZNK4Util7Network11IPv4Address8toStringB5cxx11Ev@Base 0.2.0
 _ZNK4Util7Network11IPv4AddressltERKS1_@Base 0.2.0
 _ZNK4Util7Network13TCPConnection11getRemoteIpEv@Base 0.2.0
 _ZNK4Util7Network14DataConnection6isOpenEv@Base 0.2.0
 _ZNK4Util7Network16UDPNetworkSocket6isOpenEv@Base 0.2.0
 _ZNK4Util7Network16UDPNetworkSocket7getPortEv@Base 0.2.0
 _ZNK4Util7Network17ClockSynchronizer11getClockSecEv@Base 0.2.0
 _ZNK4Util7Network17ClockSynchronizer9isRunningEv@Base 0.2.0
 _ZNK4Util8FileName9getEndingB5cxx11Ev@Base 0.2.0
 _ZNKSt10_HashtableINSt7__cxx1112basic_stringIcSt11char_traitsIcESaIcEEESt4pairIKS5_N4Util12ArchiveEntryEESaISA_ENSt8__detail10_Select1stESt8equal_toIS5_ESt4hashIS5_ENSC_18_Mod_range_hashingENSC_20_Default_ranged_hashENSC_20_Prime_rehash_policyENSC_17_Hashtable_traitsILb1ELb0ELb1EEEE19_M_find_before_nodeEmRS7_m@Base 0.2.0
 _ZNKSt10_HashtableINSt7__cxx1112basic_stringIcSt11char_traitsIcESaIcEEESt4pairIKS5_S5_ESaIS8_ENSt8__detail10_Select1stESt8equal_toIS5_ESt4hashIS5_ENSA_18_Mod_range_hashingENSA_20_Default_ranged_hashENSA_20_Prime_rehash_policyENSA_17_Hashtable_traitsILb1ELb0ELb1EEEE4findERS7_@Base 0.2.0
 _ZNKSt10_HashtableINSt7__cxx1112basic_stringIcSt11char_traitsIcESaIcEEESt4pairIKS5_St10unique_ptrIN4Util7ArchiveESt14default_deleteISA_EEESaISE_ENSt8__detail10_Select1stESt8equal_toIS5_ESt4hashIS5_ENSG_18_Mod_range_hashingENSG_20_Default_ranged_hashENSG_20_Prime_rehash_policyENSG_17_Hashtable_traitsILb1ELb0ELb1EEEE19_M_find_before_nodeEmRS7_m@Base 0.2.0
 _ZNKSt5ctypeIcE8do_widenEc@Base 0.2.0
 _ZNSt10_HashtableIDiSt4pairIKDiN4Util9GlyphInfoEESaIS4_ENSt8__detail10_Select1stESt8equal_toIDiESt4hashIDiENS6_18_Mod_range_hashingENS6_20_Default_ranged_hashENS6_20_Prime_rehash_policyENS6_17_Hashtable_traitsILb0ELb0ELb1EEEE21_M_insert_unique_nodeEmmPNS6_10_Hash_nodeIS4_Lb0EEE@Base 0.2.0
 _ZNSt10_HashtableIDiSt4pairIKDiN4Util9GlyphInfoEESaIS4_ENSt8__detail10_Select1stESt8equal_toIDiESt4hashIDiENS6_18_Mod_range_hashingENS6_20_Default_ranged_hashENS6_20_Prime_rehash_policyENS6_17_Hashtable_traitsILb0ELb0ELb1EEEE5clearEv@Base 0.2.0
 _ZNSt10_HashtableIDiSt4pairIKDiN4Util9GlyphInfoEESaIS4_ENSt8__detail10_Select1stESt8equal_toIDiESt4hashIDiENS6_18_Mod_range_hashingENS6_20_Default_ranged_hashENS6_20_Prime_rehash_policyENS6_17_Hashtable_traitsILb0ELb0ELb1EEEE9_M_assignIZNSH_C4ERKSH_EUlPKNS6_10_Hash_nodeIS4_Lb0EEEE_EEvSK_RKT_@Base 0.2.0
 _ZNSt10_HashtableIDiSt4pairIKDiN4Util9GlyphInfoEESaIS4_ENSt8__detail10_Select1stESt8equal_toIDiESt4hashIDiENS6_18_Mod_range_hashingENS6_20_Default_ranged_hashENS6_20_Prime_rehash_policyENS6_17_Hashtable_traitsILb0ELb0ELb1EEEE9_M_rehashEmRKm@Base 0.2.0
 _ZNSt10_HashtableIDiSt4pairIKDiN4Util9GlyphInfoEESaIS4_ENSt8__detail10_Select1stESt8equal_toIDiESt4hashIDiENS6_18_Mod_range_hashingENS6_20_Default_ranged_hashENS6_20_Prime_rehash_policyENS6_17_Hashtable_traitsILb0ELb0ELb1EEEED1Ev@Base 0.2.0
 _ZNSt10_HashtableIDiSt4pairIKDiN4Util9GlyphInfoEESaIS4_ENSt8__detail10_Select1stESt8equal_toIDiESt4hashIDiENS6_18_Mod_range_hashingENS6_20_Default_ranged_hashENS6_20_Prime_rehash_policyENS6_17_Hashtable_traitsILb0ELb0ELb1EEEED2Ev@Base 0.2.0
 _ZNSt10_HashtableIN4Util16StringIdentifierESt4pairIKS1_NS0_7GenericEESaIS5_ENSt8__detail10_Select1stESt8equal_toIS1_ESt4hashIS1_ENS7_18_Mod_range_hashingENS7_20_Default_ranged_hashENS7_20_Prime_rehash_policyENS7_17_Hashtable_traitsILb0ELb0ELb1EEEE21_M_insert_unique_nodeEmmPNS7_10_Hash_nodeIS5_Lb0EEE@Base 0.2.0
 _ZNSt10_HashtableIN4Util16StringIdentifierESt4pairIKS1_NS0_7GenericEESaIS5_ENSt8__detail10_Select1stESt8equal_toIS1_ESt4hashIS1_ENS7_18_Mod_range_hashingENS7_20_Default_ranged_hashENS7_20_Prime_rehash_policyENS7_17_Hashtable_traitsILb0ELb0ELb1EEEE5clearEv@Base 0.2.0
 _ZNSt10_HashtableIN4Util16StringIdentifierESt4pairIKS1_NS0_7GenericEESaIS5_ENSt8__detail10_Select1stESt8equal_toIS1_ESt4hashIS1_ENS7_18_Mod_range_hashingENS7_20_Default_ranged_hashENS7_20_Prime_rehash_policyENS7_17_Hashtable_traitsILb0ELb0ELb1EEEE9_M_assignIZNSI_C4ERKSI_EUlPKNS7_10_Hash_nodeIS5_Lb0EEEE_EEvSL_RKT_@Base 0.2.0
 _ZNSt10_HashtableIN4Util16StringIdentifierESt4pairIKS1_NS0_7GenericEESaIS5_ENSt8__detail10_Select1stESt8equal_toIS1_ESt4hashIS1_ENS7_18_Mod_range_hashingENS7_20_Default_ranged_hashENS7_20_Prime_rehash_policyENS7_17_Hashtable_traitsILb0ELb0ELb1EEEE9_M_rehashEmRKm@Base 0.2.0
 _ZNSt10_HashtableIN4Util16StringIdentifierESt4pairIKS1_NS0_7GenericEESaIS5_ENSt8__detail10_Select1stESt8equal_toIS1_ESt4hashIS1_ENS7_18_Mod_range_hashingENS7_20_Default_ranged_hashENS7_20_Prime_rehash_policyENS7_17_Hashtable_traitsILb0ELb0ELb1EEEED1Ev@Base 0.2.0
 _ZNSt10_HashtableIN4Util16StringIdentifierESt4pairIKS1_NS0_7GenericEESaIS5_ENSt8__detail10_Select1stESt8equal_toIS1_ESt4hashIS1_ENS7_18_Mod_range_hashingENS7_20_Default_ranged_hashENS7_20_Prime_rehash_policyENS7_17_Hashtable_traitsILb0ELb0ELb1EEEED2Ev@Base 0.2.0
 _ZNSt10_HashtableIN4Util16StringIdentifierESt4pairIKS1_St10unique_ptrINS0_16GenericAttributeESt14default_deleteIS5_EEESaIS9_ENSt8__detail10_Select1stESt8equal_toIS1_ESt4hashIS1_ENSB_18_Mod_range_hashingENSB_20_Default_ranged_hashENSB_20_Prime_rehash_policyENSB_17_Hashtable_traitsILb0ELb0ELb1EEEE21_M_insert_unique_nodeEmmPNSB_10_Hash_nodeIS9_Lb0EEE@Base 0.2.0
 _ZNSt10_HashtableIN4Util2UI3KeyES2_SaIS2_ENSt8__detail9_IdentityESt8equal_toIS2_ESt4hashIS2_ENS4_18_Mod_range_hashingENS4_20_Default_ranged_hashENS4_20_Prime_rehash_policyENS4_17_Hashtable_traitsILb0ELb1ELb1EEEE21_M_insert_unique_nodeEmmPNS4_10_Hash_nodeIS2_Lb0EEE@Base 0.2.0
 _ZNSt10_HashtableINSt7__cxx1112basic_stringIcSt11char_traitsIcESaIcEEESt4pairIKS5_N4Util12ArchiveEntryEESaISA_ENSt8__detail10_Select1stESt8equal_toIS5_ESt4hashIS5_ENSC_18_Mod_range_hashingENSC_20_Default_ranged_hashENSC_20_Prime_rehash_policyENSC_17_Hashtable_traitsILb1ELb0ELb1EEEE4findERS7_@Base 0.2.0
 _ZNSt10_HashtableINSt7__cxx1112basic_stringIcSt11char_traitsIcESaIcEEESt4pairIKS5_N4Util12ArchiveEntryEESaISA_ENSt8__detail10_Select1stESt8equal_toIS5_ESt4hashIS5_ENSC_18_Mod_range_hashingENSC_20_Default_ranged_hashENSC_20_Prime_rehash_policyENSC_17_Hashtable_traitsILb1ELb0ELb1EEEED1Ev@Base 0.2.0
 _ZNSt10_HashtableINSt7__cxx1112basic_stringIcSt11char_traitsIcESaIcEEESt4pairIKS5_N4Util12ArchiveEntryEESaISA_ENSt8__detail10_Select1stESt8equal_toIS5_ESt4hashIS5_ENSC_18_Mod_range_hashingENSC_20_Default_ranged_hashENSC_20_Prime_rehash_policyENSC_17_Hashtable_traitsILb1ELb0ELb1EEEED2Ev@Base 0.2.0
 _ZNSt10_HashtableINSt7__cxx1112basic_stringIcSt11char_traitsIcESaIcEEESt4pairIKS5_S5_ESaIS8_ENSt8__detail10_Select1stESt8equal_toIS5_ESt4hashIS5_ENSA_18_Mod_range_hashingENSA_20_Default_ranged_hashENSA_20_Prime_rehash_policyENSA_17_Hashtable_traitsILb1ELb0ELb1EEEE21_M_insert_unique_nodeEmmPNSA_10_Hash_nodeIS8_Lb1EEE@Base 0.2.0
 _ZNSt10_HashtableINSt7__cxx1112basic_stringIcSt11char_traitsIcESaIcEEESt4pairIKS5_S5_ESaIS8_ENSt8__detail10_Select1stESt8equal_toIS5_ESt4hashIS5_ENSA_18_Mod_range_hashingENSA_20_Default_ranged_hashENSA_20_Prime_rehash_policyENSA_17_Hashtable_traitsILb1ELb0ELb1EEEED1Ev@Base 0.2.0
 _ZNSt10_HashtableINSt7__cxx1112basic_stringIcSt11char_traitsIcESaIcEEESt4pairIKS5_S5_ESaIS8_ENSt8__detail10_Select1stESt8equal_toIS5_ESt4hashIS5_ENSA_18_Mod_range_hashingENSA_20_Default_ranged_hashENSA_20_Prime_rehash_policyENSA_17_Hashtable_traitsILb1ELb0ELb1EEEED2Ev@Base 0.2.0
 _ZNSt10_HashtableINSt7__cxx1112basic_stringIcSt11char_traitsIcESaIcEEESt4pairIKS5_St10unique_ptrIN4Util7ArchiveESt14default_deleteISA_EEESaISE_ENSt8__detail10_Select1stESt8equal_toIS5_ESt4hashIS5_ENSG_18_Mod_range_hashingENSG_20_Default_ranged_hashENSG_20_Prime_rehash_policyENSG_17_Hashtable_traitsILb1ELb0ELb1EEEE10_M_emplaceIJS6_IS5_SD_EEEES6_INSG_14_Node_iteratorISE_Lb0ELb1EEEbESt17integral_constantIbLb1EEDpOT_@Base 0.2.0
 _ZNSt10_HashtableINSt7__cxx1112basic_stringIcSt11char_traitsIcESaIcEEESt4pairIKS5_St10unique_ptrIN4Util7ArchiveESt14default_deleteISA_EEESaISE_ENSt8__detail10_Select1stESt8equal_toIS5_ESt4hashIS5_ENSG_18_Mod_range_hashingENSG_20_Default_ranged_hashENSG_20_Prime_rehash_policyENSG_17_Hashtable_traitsILb1ELb0ELb1EEEE21_M_insert_unique_nodeEmmPNSG_10_Hash_nodeISE_Lb1EEE@Base 0.2.0
 _ZNSt10_HashtableINSt7__cxx1112basic_stringIcSt11char_traitsIcESaIcEEESt4pairIKS5_St10unique_ptrIN4Util7ArchiveESt14default_deleteISA_EEESaISE_ENSt8__detail10_Select1stESt8equal_toIS5_ESt4hashIS5_ENSG_18_Mod_range_hashingENSG_20_Default_ranged_hashENSG_20_Prime_rehash_policyENSG_17_Hashtable_traitsILb1ELb0ELb1EEEE5clearEv@Base 0.2.0
 _ZNSt10_HashtableINSt7__cxx1112basic_stringIcSt11char_traitsIcESaIcEEESt4pairIKS5_St10unique_ptrIN4Util7ArchiveESt14default_deleteISA_EEESaISE_ENSt8__detail10_Select1stESt8equal_toIS5_ESt4hashIS5_ENSG_18_Mod_range_hashingENSG_20_Default_ranged_hashENSG_20_Prime_rehash_policyENSG_17_Hashtable_traitsILb1ELb0ELb1EEEE9_M_rehashEmRKm@Base 0.2.0
 _ZNSt10_HashtableIiSt4pairIKiN4Util2UI3KeyEESaIS5_ENSt8__detail10_Select1stESt8equal_toIiESt4hashIiENS7_18_Mod_range_hashingENS7_20_Default_ranged_hashENS7_20_Prime_rehash_policyENS7_17_Hashtable_traitsILb0ELb0ELb1EEEE21_M_insert_unique_nodeEmmPNS7_10_Hash_nodeIS5_Lb0EEE@Base 0.2.0
 _ZNSt10_HashtableIjSt4pairIKjNSt7__cxx1112basic_stringIcSt11char_traitsIcESaIcEEEESaIS8_ENSt8__detail10_Select1stESt8equal_toIjESt4hashIjENSA_18_Mod_range_hashingENSA_20_Default_ranged_hashENSA_20_Prime_rehash_policyENSA_17_Hashtable_traitsILb0ELb0ELb1EEEE10_M_emplaceIJRjRKS7_EEES0_INSA_14_Node_iteratorIS8_Lb0ELb0EEEbESt17integral_constantIbLb1EEDpOT_@Base 0.2.0
 _ZNSt10_HashtableIjSt4pairIKjNSt7__cxx1112basic_stringIcSt11char_traitsIcESaIcEEEESaIS8_ENSt8__detail10_Select1stESt8equal_toIjESt4hashIjENSA_18_Mod_range_hashingENSA_20_Default_ranged_hashENSA_20_Prime_rehash_policyENSA_17_Hashtable_traitsILb0ELb0ELb1EEEE21_M_insert_unique_nodeEmmPNSA_10_Hash_nodeIS8_Lb0EEE@Base 0.2.0
 _ZNSt10_HashtableIjSt4pairIKjNSt7__cxx1112basic_stringIcSt11char_traitsIcESaIcEEEESaIS8_ENSt8__detail10_Select1stESt8equal_toIjESt4hashIjENSA_18_Mod_range_hashingENSA_20_Default_ranged_hashENSA_20_Prime_rehash_policyENSA_17_Hashtable_traitsILb0ELb0ELb1EEEE4findERS1_@Base 0.2.0
 _ZNSt10_HashtableIjSt4pairIKjNSt7__cxx1112basic_stringIcSt11char_traitsIcESaIcEEEESaIS8_ENSt8__detail10_Select1stESt8equal_toIjESt4hashIjENSA_18_Mod_range_hashingENSA_20_Default_ranged_hashENSA_20_Prime_rehash_policyENSA_17_Hashtable_traitsILb0ELb0ELb1EEEE9_M_rehashEmRKm@Base 0.2.0
 _ZNSt10_HashtableImSt4pairIKmN4Util2UI3KeyEESaIS5_ENSt8__detail10_Select1stESt8equal_toImESt4hashImENS7_18_Mod_range_hashingENS7_20_Default_ranged_hashENS7_20_Prime_rehash_policyENS7_17_Hashtable_traitsILb0ELb0ELb1EEEE21_M_insert_unique_nodeEmmPNS7_10_Hash_nodeIS5_Lb0EEE@Base 0.2.0
 _ZNSt10_HashtableItSt4pairIKtSt8functionIFvtRKN4Util16StringIdentifierERKSt6vectorIhSaIhEEEEESaISE_ENSt8__detail10_Select1stESt8equal_toItESt4hashItENSG_18_Mod_range_hashingENSG_20_Default_ranged_hashENSG_20_Prime_rehash_policyENSG_17_Hashtable_traitsILb0ELb0ELb1EEEE4findERS1_@Base 0.2.0
 _ZNSt10_HashtableItSt4pairIKtSt8functionIFvtRKN4Util16StringIdentifierERKSt6vectorIhSaIhEEEEESaISE_ENSt8__detail10_Select1stESt8equal_toItESt4hashItENSG_18_Mod_range_hashingENSG_20_Default_ranged_hashENSG_20_Prime_rehash_policyENSG_17_Hashtable_traitsILb0ELb0ELb1EEEED1Ev@Base 0.2.0
 _ZNSt10_HashtableItSt4pairIKtSt8functionIFvtRKN4Util16StringIdentifierERKSt6vectorIhSaIhEEEEESaISE_ENSt8__detail10_Select1stESt8equal_toItESt4hashItENSG_18_Mod_range_hashingENSG_20_Default_ranged_hashENSG_20_Prime_rehash_policyENSG_17_Hashtable_traitsILb0ELb0ELb1EEEED2Ev@Base 0.2.0
 _ZNSt10_HashtableItSt4pairIKtSt8functionIFvtRKSt6vectorIhSaIhEEEEESaISA_ENSt8__detail10_Select1stESt8equal_toItESt4hashItENSC_18_Mod_range_hashingENSC_20_Default_ranged_hashENSC_20_Prime_rehash_policyENSC_17_Hashtable_traitsILb0ELb0ELb1EEEE4findERS1_@Base 0.2.0
 _ZNSt10_HashtableItSt4pairIKtSt8functionIFvtRKSt6vectorIhSaIhEEEEESaISA_ENSt8__detail10_Select1stESt8equal_toItESt4hashItENSC_18_Mod_range_hashingENSC_20_Default_ranged_hashENSC_20_Prime_rehash_policyENSC_17_Hashtable_traitsILb0ELb0ELb1EEEED1Ev@Base 0.2.0
 _ZNSt10_HashtableItSt4pairIKtSt8functionIFvtRKSt6vectorIhSaIhEEEEESaISA_ENSt8__detail10_Select1stESt8equal_toItESt4hashItENSC_18_Mod_range_hashingENSC_20_Default_ranged_hashENSC_20_Prime_rehash_policyENSC_17_Hashtable_traitsILb0ELb0ELb1EEEED2Ev@Base 0.2.0
 _ZNSt10unique_ptrIN4Util2UI15SplashScreenX1116SplashScreenDataESt14default_deleteIS3_EED1Ev@Base 0.2.0
 _ZNSt10unique_ptrIN4Util2UI15SplashScreenX1116SplashScreenDataESt14default_deleteIS3_EED2Ev@Base 0.2.0
 _ZNSt10unique_ptrIN4Util2UI6CursorESt14default_deleteIS2_EED1Ev@Base 0.2.0
 _ZNSt10unique_ptrIN4Util2UI6CursorESt14default_deleteIS2_EED2Ev@Base 0.2.0
 _ZNSt10unique_ptrIN4Util2UI9WindowEGL13WindowEGLDataESt14default_deleteIS3_EED1Ev@Base 0.2.0
 _ZNSt10unique_ptrIN4Util2UI9WindowEGL13WindowEGLDataESt14default_deleteIS3_EED2Ev@Base 0.2.0
 _ZNSt10unique_ptrISt13unordered_mapIjNSt7__cxx1112basic_stringIcSt11char_traitsIcESaIcEEESt4hashIjESt8equal_toIjESaISt4pairIKjS6_EEESt14default_deleteISF_EED1Ev@Base 0.2.0
 _ZNSt10unique_ptrISt13unordered_mapIjNSt7__cxx1112basic_stringIcSt11char_traitsIcESaIcEEESt4hashIjESt8equal_toIjESaISt4pairIKjS6_EEESt14default_deleteISF_EED2Ev@Base 0.2.0
 _ZNSt11_Deque_baseIN4Util2UI5EventESaIS2_EED1Ev@Base 0.2.0
 _ZNSt11_Deque_baseIN4Util2UI5EventESaIS2_EED2Ev@Base 0.2.0
 _ZNSt11_Deque_baseISt6vectorIhSaIhEESaIS2_EE17_M_initialize_mapEm@Base 0.2.0
 _ZNSt11_Deque_baseIdSaIdEED1Ev@Base 0.2.0
 _ZNSt11_Deque_baseIdSaIdEED2Ev@Base 0.2.0
 _ZNSt11_Deque_baseIfSaIfEED1Ev@Base 0.2.0
 _ZNSt11_Deque_baseIfSaIfEED2Ev@Base 0.2.0
 _ZNSt13unordered_mapIiN4Util2UI3KeyESt4hashIiESt8equal_toIiESaISt4pairIKiS2_EEED1Ev@Base 0.2.0
 _ZNSt13unordered_mapIiN4Util2UI3KeyESt4hashIiESt8equal_toIiESaISt4pairIKiS2_EEED2Ev@Base 0.2.0
 _ZNSt13unordered_mapImN4Util2UI3KeyESt4hashImESt8equal_toImESaISt4pairIKmS2_EEED1Ev@Base 0.2.0
 _ZNSt13unordered_mapImN4Util2UI3KeyESt4hashImESt8equal_toImESaISt4pairIKmS2_EEED2Ev@Base 0.2.0
 _ZNSt14_Function_base13_Base_managerIN4Util13ObjectCreatorINS1_11StreamerPNGEEEE10_M_managerERSt9_Any_dataRKS6_St18_Manager_operation@Base 0.2.0
 _ZNSt14_Function_base13_Base_managerIN4Util13ObjectCreatorINS1_11StreamerSDLEEEE10_M_managerERSt9_Any_dataRKS6_St18_Manager_operation@Base 0.2.0
 _ZNSt14_Function_base13_Base_managerIN4Util13ObjectCreatorINS1_16StreamerSDLImageEEEE10_M_managerERSt9_Any_dataRKS6_St18_Manager_operation@Base 0.2.0
 _ZNSt14_Function_base13_Base_managerIN4Util20PointerHolderCreatorINS1_10FSProviderEEEE10_M_managerERSt9_Any_dataRKS6_St18_Manager_operation@Base 0.2.0
 _ZNSt14_Function_base13_Base_managerIN4Util20PointerHolderCreatorINS1_11NetProviderEEEE10_M_managerERSt9_Any_dataRKS6_St18_Manager_operation@Base 0.2.0
 _ZNSt14_Function_base13_Base_managerIN4Util20PointerHolderCreatorINS1_11ZIPProviderEEEE10_M_managerERSt9_Any_dataRKS6_St18_Manager_operation@Base 0.2.0
 _ZNSt14_Function_base13_Base_managerIN4Util20PointerHolderCreatorINS1_12DBFSProviderEEEE10_M_managerERSt9_Any_dataRKS6_St18_Manager_operation@Base 0.2.0
 _ZNSt14_Function_base13_Base_managerIN4Util20PointerHolderCreatorINS1_15ArchiveProviderEEEE10_M_managerERSt9_Any_dataRKS6_St18_Manager_operation@Base 0.2.0
 _ZNSt14_Function_base13_Base_managerIPFPN4Util13BoolAttributeERKSt4pairINSt7__cxx1112basic_stringIcSt11char_traitsIcESaIcEEEPKNS1_19GenericAttributeMapEEEE10_M_managerERSt9_Any_dataRKSK_St18_Manager_operation@Base 0.2.0
 _ZNSt14_Function_base13_Base_managerIPFPN4Util16_NumberAttributeIcEERKSt4pairINSt7__cxx1112basic_stringIcSt11char_traitsIcESaIcEEEPKNS1_19GenericAttributeMapEEEE10_M_managerERSt9_Any_dataRKSL_St18_Manager_operation@Base 0.2.0
 _ZNSt14_Function_base13_Base_managerIPFPN4Util16_NumberAttributeIdEERKSt4pairINSt7__cxx1112basic_stringIcSt11char_traitsIcESaIcEEEPKNS1_19GenericAttributeMapEEEE10_M_managerERSt9_Any_dataRKSL_St18_Manager_operation@Base 0.2.0
 _ZNSt14_Function_base13_Base_managerIPFPN4Util16_NumberAttributeIfEERKSt4pairINSt7__cxx1112basic_stringIcSt11char_traitsIcESaIcEEEPKNS1_19GenericAttributeMapEEEE10_M_managerERSt9_Any_dataRKSL_St18_Manager_operation@Base 0.2.0
 _ZNSt14_Function_base13_Base_managerIPFPN4Util16_NumberAttributeIhEERKSt4pairINSt7__cxx1112basic_stringIcSt11char_traitsIcESaIcEEEPKNS1_19GenericAttributeMapEEEE10_M_managerERSt9_Any_dataRKSL_St18_Manager_operation@Base 0.2.0
 _ZNSt14_Function_base13_Base_managerIPFPN4Util16_NumberAttributeIiEERKSt4pairINSt7__cxx1112basic_stringIcSt11char_traitsIcESaIcEEEPKNS1_19GenericAttributeMapEEEE10_M_managerERSt9_Any_dataRKSL_St18_Manager_operation@Base 0.2.0
 _ZNSt14_Function_base13_Base_managerIPFPN4Util16_NumberAttributeIjEERKSt4pairINSt7__cxx1112basic_stringIcSt11char_traitsIcESaIcEEEPKNS1_19GenericAttributeMapEEEE10_M_managerERSt9_Any_dataRKSL_St18_Manager_operation@Base 0.2.0
 _ZNSt14_Function_base13_Base_managerIPFPN4Util16_NumberAttributeIlEERKSt4pairINSt7__cxx1112basic_stringIcSt11char_traitsIcESaIcEEEPKNS1_19GenericAttributeMapEEEE10_M_managerERSt9_Any_dataRKSL_St18_Manager_operation@Base 0.2.0
 _ZNSt14_Function_base13_Base_managerIPFPN4Util16_NumberAttributeImEERKSt4pairINSt7__cxx1112basic_stringIcSt11char_traitsIcESaIcEEEPKNS1_19GenericAttributeMapEEEE10_M_managerERSt9_Any_dataRKSL_St18_Manager_operation@Base 0.2.0
 _ZNSt14_Function_base13_Base_managerIPFPN4Util16_NumberAttributeIsEERKSt4pairINSt7__cxx1112basic_stringIcSt11char_traitsIcESaIcEEEPKNS1_19GenericAttributeMapEEEE10_M_managerERSt9_Any_dataRKSL_St18_Manager_operation@Base 0.2.0
 _ZNSt14_Function_base13_Base_managerIPFPN4Util16_NumberAttributeItEERKSt4pairINSt7__cxx1112basic_stringIcSt11char_traitsIcESaIcEEEPKNS1_19GenericAttributeMapEEEE10_M_managerERSt9_Any_dataRKSL_St18_Manager_operation@Base 0.2.0
 _ZNSt14_Function_base13_Base_managerIPFPN4Util16_StringAttributeINSt7__cxx1112basic_stringIcSt11char_traitsIcESaIcEEEEERKSt4pairIS8_PKNS1_19GenericAttributeMapEEEE10_M_managerERSt9_Any_dataRKSL_St18_Manager_operation@Base 0.2.0
 _ZNSt14_Function_base13_Base_managerIPFPN4Util19GenericAttributeMapERKSt4pairINSt7__cxx1112basic_stringIcSt11char_traitsIcESaIcEEEPKS2_EEE10_M_managerERSt9_Any_dataRKSJ_St18_Manager_operation@Base 0.2.0
 _ZNSt14_Function_base13_Base_managerIPFPN4Util20GenericAttributeListERKSt4pairINSt7__cxx1112basic_stringIcSt11char_traitsIcESaIcEEEPKNS1_19GenericAttributeMapEEEE10_M_managerERSt9_Any_dataRKSK_St18_Manager_operation@Base 0.2.0
 _ZNSt14_Function_base13_Base_managerIPFSt4pairINSt7__cxx1112basic_stringIcSt11char_traitsIcESaIcEEES7_ERKS1_IPKN4Util16GenericAttributeEPKNS9_19GenericAttributeMapEEEE10_M_managerERSt9_Any_dataRKSM_St18_Manager_operation@Base 0.2.0
 _ZNSt14_Function_base13_Base_managerISt5_BindIFSt7_Mem_fnIMN4Util14WrapperFactoryISt4pairINSt7__cxx1112basic_stringIcSt11char_traitsIcESaIcEEEPKNS3_19GenericAttributeMapEEPNS3_16GenericAttributeESB_St8functionIFSH_RKSF_EENS3_16FallbackPolicies17ExceptionFallbackEEEFSH_RKSB_SK_EEPSP_St12_PlaceholderILi1EESF_EEE10_M_managerERSt9_Any_dataRKS11_St18_Manager_operation@Base 0.2.0
 _ZNSt14_Function_base13_Base_managerISt5_BindIFSt7_Mem_fnIMN4Util14WrapperFactoryISt4pairIPKNS3_16GenericAttributeEPKNS3_19GenericAttributeMapEES5_INSt7__cxx1112basic_stringIcSt11char_traitsIcESaIcEEESI_ESt10type_indexSt8functionIFSJ_RKSC_EENS3_16FallbackPolicies17ExceptionFallbackEEEFSJ_RKSK_SN_EEPSS_St12_PlaceholderILi1EESC_EEE10_M_managerERSt9_Any_dataRKS14_St18_Manager_operation@Base 0.2.0
 _ZNSt14_Function_base13_Base_managerISt5_BindIFSt7_Mem_fnIMN4Util2UI12EventContextEFbRKNS4_5EventEEEPS5_St12_PlaceholderILi1EEEEE10_M_managerERSt9_Any_dataRKSI_St18_Manager_operation@Base 0.2.0
 _ZNSt14_Function_base13_Base_managerISt5_BindIFSt7_Mem_fnIMN4Util7FactoryIPNS3_18AbstractFSProviderENSt7__cxx1112basic_stringIcSt11char_traitsIcESaIcEEESt8functionIFS6_vEENS3_16FallbackPolicies12NULLFallbackEEEFS6_RKSC_EEPSI_St12_PlaceholderILi1EEEEE10_M_managerERSt9_Any_dataRKSU_St18_Manager_operation@Base 0.2.0
 _ZNSt14_Function_base13_Base_managerISt5_BindIFSt7_Mem_fnIMN4Util7FactoryIPNS3_22AbstractBitmapStreamerENSt7__cxx1112basic_stringIcSt11char_traitsIcESaIcEEESt8functionIFS6_vEENS3_16FallbackPolicies12NULLFallbackEEEFS6_RKSC_EEPSI_St12_PlaceholderILi1EEEEE10_M_managerERSt9_Any_dataRKSU_St18_Manager_operation@Base 0.2.0
 _ZNSt15_Sp_counted_ptrIDnLN9__gnu_cxx12_Lock_policyE2EE10_M_disposeEv@Base 0.2.0
 _ZNSt16_Sp_counted_baseILN9__gnu_cxx12_Lock_policyE2EE10_M_destroyEv@Base 0.2.0
 _ZNSt16_Sp_counted_baseILN9__gnu_cxx12_Lock_policyE2EE10_M_releaseEv@Base 0.2.0
 _ZNSt17_Function_handlerIFPN4Util16GenericAttributeERKNSt7__cxx1112basic_stringIcSt11char_traitsIcESaIcEEEESt5_BindIFSt7_Mem_fnIMNS0_14WrapperFactoryISt4pairIS8_PKNS0_19GenericAttributeMapEES2_S8_St8functionIFS2_RKSJ_EENS0_16FallbackPolicies17ExceptionFallbackEEEFS2_SA_SM_EEPSR_St12_PlaceholderILi1EESJ_EEE9_M_invokeERKSt9_Any_dataSA_@Base 0.2.0
 _ZNSt17_Function_handlerIFPN4Util16GenericAttributeERKSt4pairINSt7__cxx1112basic_stringIcSt11char_traitsIcESaIcEEEPKNS0_19GenericAttributeMapEEEPFPNS0_13BoolAttributeESF_EE9_M_invokeERKSt9_Any_dataSF_@Base 0.2.0
 _ZNSt17_Function_handlerIFPN4Util16GenericAttributeERKSt4pairINSt7__cxx1112basic_stringIcSt11char_traitsIcESaIcEEEPKNS0_19GenericAttributeMapEEEPFPNS0_16_NumberAttributeIcEESF_EE9_M_invokeERKSt9_Any_dataSF_@Base 0.2.0
 _ZNSt17_Function_handlerIFPN4Util16GenericAttributeERKSt4pairINSt7__cxx1112basic_stringIcSt11char_traitsIcESaIcEEEPKNS0_19GenericAttributeMapEEEPFPNS0_16_NumberAttributeIdEESF_EE9_M_invokeERKSt9_Any_dataSF_@Base 0.2.0
 _ZNSt17_Function_handlerIFPN4Util16GenericAttributeERKSt4pairINSt7__cxx1112basic_stringIcSt11char_traitsIcESaIcEEEPKNS0_19GenericAttributeMapEEEPFPNS0_16_NumberAttributeIfEESF_EE9_M_invokeERKSt9_Any_dataSF_@Base 0.2.0
 _ZNSt17_Function_handlerIFPN4Util16GenericAttributeERKSt4pairINSt7__cxx1112basic_stringIcSt11char_traitsIcESaIcEEEPKNS0_19GenericAttributeMapEEEPFPNS0_16_NumberAttributeIhEESF_EE9_M_invokeERKSt9_Any_dataSF_@Base 0.2.0
 _ZNSt17_Function_handlerIFPN4Util16GenericAttributeERKSt4pairINSt7__cxx1112basic_stringIcSt11char_traitsIcESaIcEEEPKNS0_19GenericAttributeMapEEEPFPNS0_16_NumberAttributeIiEESF_EE9_M_invokeERKSt9_Any_dataSF_@Base 0.2.0
 _ZNSt17_Function_handlerIFPN4Util16GenericAttributeERKSt4pairINSt7__cxx1112basic_stringIcSt11char_traitsIcESaIcEEEPKNS0_19GenericAttributeMapEEEPFPNS0_16_NumberAttributeIjEESF_EE9_M_invokeERKSt9_Any_dataSF_@Base 0.2.0
 _ZNSt17_Function_handlerIFPN4Util16GenericAttributeERKSt4pairINSt7__cxx1112basic_stringIcSt11char_traitsIcESaIcEEEPKNS0_19GenericAttributeMapEEEPFPNS0_16_NumberAttributeIlEESF_EE9_M_invokeERKSt9_Any_dataSF_@Base 0.2.0
 _ZNSt17_Function_handlerIFPN4Util16GenericAttributeERKSt4pairINSt7__cxx1112basic_stringIcSt11char_traitsIcESaIcEEEPKNS0_19GenericAttributeMapEEEPFPNS0_16_NumberAttributeImEESF_EE9_M_invokeERKSt9_Any_dataSF_@Base 0.2.0
 _ZNSt17_Function_handlerIFPN4Util16GenericAttributeERKSt4pairINSt7__cxx1112basic_stringIcSt11char_traitsIcESaIcEEEPKNS0_19GenericAttributeMapEEEPFPNS0_16_NumberAttributeIsEESF_EE9_M_invokeERKSt9_Any_dataSF_@Base 0.2.0
 _ZNSt17_Function_handlerIFPN4Util16GenericAttributeERKSt4pairINSt7__cxx1112basic_stringIcSt11char_traitsIcESaIcEEEPKNS0_19GenericAttributeMapEEEPFPNS0_16_NumberAttributeItEESF_EE9_M_invokeERKSt9_Any_dataSF_@Base 0.2.0
 _ZNSt17_Function_handlerIFPN4Util16GenericAttributeERKSt4pairINSt7__cxx1112basic_stringIcSt11char_traitsIcESaIcEEEPKNS0_19GenericAttributeMapEEEPFPNS0_16_StringAttributeIS9_EESF_EE9_M_invokeERKSt9_Any_dataSF_@Base 0.2.0
 _ZNSt17_Function_handlerIFPN4Util16GenericAttributeERKSt4pairINSt7__cxx1112basic_stringIcSt11char_traitsIcESaIcEEEPKNS0_19GenericAttributeMapEEEPFPNS0_20GenericAttributeListESF_EE9_M_invokeERKSt9_Any_dataSF_@Base 0.2.0
 _ZNSt17_Function_handlerIFPN4Util16GenericAttributeERKSt4pairINSt7__cxx1112basic_stringIcSt11char_traitsIcESaIcEEEPKNS0_19GenericAttributeMapEEEPFPSA_SF_EE9_M_invokeERKSt9_Any_dataSF_@Base 0.2.0
 _ZNSt17_Function_handlerIFPN4Util18AbstractFSProviderERKNSt7__cxx1112basic_stringIcSt11char_traitsIcESaIcEEEESt5_BindIFSt7_Mem_fnIMNS0_7FactoryIS2_S8_St8functionIFS2_vEENS0_16FallbackPolicies12NULLFallbackEEEFS2_SA_EEPSK_St12_PlaceholderILi1EEEEE9_M_invokeERKSt9_Any_dataSA_@Base 0.2.0
 _ZNSt17_Function_handlerIFPN4Util18AbstractFSProviderEvENS0_20PointerHolderCreatorINS0_10FSProviderEEEE9_M_invokeERKSt9_Any_data@Base 0.2.0
 _ZNSt17_Function_handlerIFPN4Util18AbstractFSProviderEvENS0_20PointerHolderCreatorINS0_11NetProviderEEEE9_M_invokeERKSt9_Any_data@Base 0.2.0
 _ZNSt17_Function_handlerIFPN4Util18AbstractFSProviderEvENS0_20PointerHolderCreatorINS0_11ZIPProviderEEEE9_M_invokeERKSt9_Any_data@Base 0.2.0
 _ZNSt17_Function_handlerIFPN4Util18AbstractFSProviderEvENS0_20PointerHolderCreatorINS0_12DBFSProviderEEEE9_M_invokeERKSt9_Any_data@Base 0.2.0
 _ZNSt17_Function_handlerIFPN4Util18AbstractFSProviderEvENS0_20PointerHolderCreatorINS0_15ArchiveProviderEEEE9_M_invokeERKSt9_Any_data@Base 0.2.0
 _ZNSt17_Function_handlerIFPN4Util22AbstractBitmapStreamerERKNSt7__cxx1112basic_stringIcSt11char_traitsIcESaIcEEEESt5_BindIFSt7_Mem_fnIMNS0_7FactoryIS2_S8_St8functionIFS2_vEENS0_16FallbackPolicies12NULLFallbackEEEFS2_SA_EEPSK_St12_PlaceholderILi1EEEEE9_M_invokeERKSt9_Any_dataSA_@Base 0.2.0
 _ZNSt17_Function_handlerIFPN4Util22AbstractBitmapStreamerEvENS0_13ObjectCreatorINS0_11StreamerPNGEEEE9_M_invokeERKSt9_Any_data@Base 0.2.0
 _ZNSt17_Function_handlerIFPN4Util22AbstractBitmapStreamerEvENS0_13ObjectCreatorINS0_11StreamerSDLEEEE9_M_invokeERKSt9_Any_data@Base 0.2.0
 _ZNSt17_Function_handlerIFPN4Util22AbstractBitmapStreamerEvENS0_13ObjectCreatorINS0_16StreamerSDLImageEEEE9_M_invokeERKSt9_Any_data@Base 0.2.0
 _ZNSt17_Function_handlerIFSt4pairINSt7__cxx1112basic_stringIcSt11char_traitsIcESaIcEEES6_ERKS0_IPKN4Util16GenericAttributeEPKNS8_19GenericAttributeMapEEEPSI_E9_M_invokeERKSt9_Any_dataSH_@Base 0.2.0
 _ZNSt17_Function_handlerIFSt4pairINSt7__cxx1112basic_stringIcSt11char_traitsIcESaIcEEES6_ERKSt10type_indexESt5_BindIFSt7_Mem_fnIMN4Util14WrapperFactoryIS0_IPKNSE_16GenericAttributeEPKNSE_19GenericAttributeMapEES7_S8_St8functionIFS7_RKSM_EENSE_16FallbackPolicies17ExceptionFallbackEEEFS7_SA_SP_EEPSU_St12_PlaceholderILi1EESM_EEE9_M_invokeERKSt9_Any_dataSA_@Base 0.2.0
 _ZNSt17_Function_handlerIFbRKN4Util2UI5EventEESt5_BindIFSt7_Mem_fnIMNS1_12EventContextEFbS4_EEPS8_St12_PlaceholderILi1EEEEE9_M_invokeERKSt9_Any_dataS4_@Base 0.2.0
 _ZNSt24uniform_int_distributionIcEclISt26linear_congruential_engineImLm16807ELm0ELm2147483647EEEEcRT_RKNS0_10param_typeE@Base 0.2.0
 _ZNSt24uniform_int_distributionIhEclISt26linear_congruential_engineImLm16807ELm0ELm2147483647EEEEhRT_RKNS0_10param_typeE@Base 0.2.0
 _ZNSt24uniform_int_distributionImEclISt26linear_congruential_engineImLm16807ELm0ELm2147483647EEEEmRT_RKNS0_10param_typeE@Base 0.2.0
 _ZNSt3mapINSt7__cxx1112basic_stringIcSt11char_traitsIcESaIcEEES5_St4lessIS5_ESaISt4pairIKS5_S5_EEED1Ev@Base 0.2.0
 _ZNSt3mapINSt7__cxx1112basic_stringIcSt11char_traitsIcESaIcEEES5_St4lessIS5_ESaISt4pairIKS5_S5_EEED2Ev@Base 0.2.0
 _ZNSt4pairIKNSt7__cxx1112basic_stringIcSt11char_traitsIcESaIcEEESt8functionIFPN4Util22AbstractBitmapStreamerEvEEED1Ev@Base 0.2.0
 _ZNSt4pairIKNSt7__cxx1112basic_stringIcSt11char_traitsIcESaIcEEESt8functionIFPN4Util22AbstractBitmapStreamerEvEEED2Ev@Base 0.2.0
 _ZNSt5dequeIN4Util2UI5EventESaIS2_EE12emplace_backIJRKS2_EEEvDpOT_@Base 0.2.0
 _ZNSt5dequeIN4Util2UI5EventESaIS2_EE13_M_insert_auxISt15_Deque_iteratorIS2_RKS2_PS7_EEEvS6_IS2_RS2_PS2_ET_SE_m@Base 0.2.0
 _ZNSt5dequeIN4Util2UI5EventESaIS2_EE17_M_reallocate_mapEmb@Base 0.2.0
 _ZNSt5dequeIN4Util2UI5EventESaIS2_EE19_M_range_insert_auxISt15_Deque_iteratorIS2_RKS2_PS7_EEEvS6_IS2_RS2_PS2_ET_SE_St20forward_iterator_tag@Base 0.2.0
 _ZNSt5dequeIN4Util2UI5EventESaIS2_EE23_M_new_elements_at_backEm@Base 0.2.0
 _ZNSt5dequeIN4Util2UI5EventESaIS2_EE24_M_new_elements_at_frontEm@Base 0.2.0
 _ZNSt5dequeIN4Util9ReferenceINS0_7Network13TCPConnectionEEESaIS4_EE16_M_pop_front_auxEv@Base 0.2.0
 _ZNSt5dequeIN4Util9ReferenceINS0_7Network13TCPConnectionEEESaIS4_EED1Ev@Base 0.2.0
 _ZNSt5dequeIN4Util9ReferenceINS0_7Network13TCPConnectionEEESaIS4_EED2Ev@Base 0.2.0
 _ZNSt5dequeISt10unique_ptrIN4Util16GenericAttributeESt14default_deleteIS2_EESaIS5_EE16_M_push_back_auxIJRPS2_EEEvDpOT_@Base 0.2.0
 _ZNSt5dequeISt10unique_ptrIN4Util16GenericAttributeESt14default_deleteIS2_EESaIS5_EE19_M_destroy_data_auxESt15_Deque_iteratorIS5_RS5_PS5_ESB_@Base 0.2.0
 _ZNSt5dequeISt4pairIKNSt7__cxx1112basic_stringIcSt11char_traitsIcESaIcEEES6_ESaIS8_EE12emplace_backIJRA2_KcRA3_SC_EEEvDpOT_@Base 0.2.0
 _ZNSt5dequeISt4pairIKNSt7__cxx1112basic_stringIcSt11char_traitsIcESaIcEEES6_ESaIS8_EE16_M_push_back_auxIJRA2_KcRA3_SC_EEEvDpOT_@Base 0.2.0
 _ZNSt5dequeISt4pairIKNSt7__cxx1112basic_stringIcSt11char_traitsIcESaIcEEES6_ESaIS8_EED1Ev@Base 0.2.0
 _ZNSt5dequeISt4pairIKNSt7__cxx1112basic_stringIcSt11char_traitsIcESaIcEEES6_ESaIS8_EED2Ev@Base 0.2.0
 _ZNSt5dequeISt4pairItSt6vectorIhSaIhEEESaIS4_EE16_M_push_back_auxIJRKtRKS3_EEEvDpOT_@Base 0.2.0
 _ZNSt5dequeISt4pairItSt6vectorIhSaIhEEESaIS4_EE19_M_destroy_data_auxESt15_Deque_iteratorIS4_RS4_PS4_ESA_@Base 0.2.0
 _ZNSt5dequeISt4pairItSt6vectorIhSaIhEEESaIS4_EED1Ev@Base 0.2.0
 _ZNSt5dequeISt4pairItSt6vectorIhSaIhEEESaIS4_EED2Ev@Base 0.2.0
 _ZNSt5dequeISt6vectorIhSaIhEESaIS2_EE16_M_pop_front_auxEv@Base 0.2.0
 _ZNSt5dequeISt6vectorIhSaIhEESaIS2_EE16_M_push_back_auxIJRKS2_EEEvDpOT_@Base 0.2.0
 _ZNSt5dequeISt6vectorIhSaIhEESaIS2_EE17_M_reallocate_mapEmb@Base 0.2.0
 _ZNSt5dequeISt6vectorIhSaIhEESaIS2_EE19_M_destroy_data_auxESt15_Deque_iteratorIS2_RS2_PS2_ES8_@Base 0.2.0
 _ZNSt5dequeISt6vectorIhSaIhEESaIS2_EED1Ev@Base 0.2.0
 _ZNSt5dequeISt6vectorIhSaIhEESaIS2_EED2Ev@Base 0.2.0
 _ZNSt5dequeISt8functionIFS_IN4Util2UI5EventESaIS3_EEvEESaIS7_EE16_M_push_back_auxIJRKS7_EEEvDpOT_@Base 0.2.0
 _ZNSt5dequeISt8functionIFS_IN4Util2UI5EventESaIS3_EEvEESaIS7_EE19_M_destroy_data_auxESt15_Deque_iteratorIS7_RS7_PS7_ESD_@Base 0.2.0
 _ZNSt5dequeISt8functionIFS_IN4Util2UI5EventESaIS3_EEvEESaIS7_EED1Ev@Base 0.2.0
 _ZNSt5dequeISt8functionIFS_IN4Util2UI5EventESaIS3_EEvEESaIS7_EED2Ev@Base 0.2.0
 _ZNSt5dequeISt8functionIFbRKN4Util2UI5EventEEESaIS7_EE16_M_push_back_auxIJRKS7_EEEvDpOT_@Base 0.2.0
 _ZNSt5dequeISt8functionIFbRKN4Util2UI5EventEEESaIS7_EE19_M_destroy_data_auxESt15_Deque_iteratorIS7_RS7_PS7_ESD_@Base 0.2.0
 _ZNSt6thread11_State_implISt12_Bind_simpleIFSt5_BindIFSt7_Mem_fnIMN4Util2UI15SplashScreenX11EFvvEEPS6_EEvEEE6_M_runEv@Base 0.2.0
 _ZNSt6thread11_State_implISt12_Bind_simpleIFSt5_BindIFSt7_Mem_fnIMN4Util2UI15SplashScreenX11EFvvEEPS6_EEvEEED0Ev@Base 0.2.0
 _ZNSt6thread11_State_implISt12_Bind_simpleIFSt5_BindIFSt7_Mem_fnIMN4Util2UI15SplashScreenX11EFvvEEPS6_EEvEEED1Ev@Base 0.2.0
 _ZNSt6thread11_State_implISt12_Bind_simpleIFSt5_BindIFSt7_Mem_fnIMN4Util2UI15SplashScreenX11EFvvEEPS6_EEvEEED2Ev@Base 0.2.0
 _ZNSt6thread11_State_implISt12_Bind_simpleIFSt5_BindIFSt7_Mem_fnIMN4Util7Network13TCPConnectionEFvvEEPS6_EEvEEE6_M_runEv@Base 0.2.0
 _ZNSt6thread11_State_implISt12_Bind_simpleIFSt5_BindIFSt7_Mem_fnIMN4Util7Network13TCPConnectionEFvvEEPS6_EEvEEED0Ev@Base 0.2.0
 _ZNSt6thread11_State_implISt12_Bind_simpleIFSt5_BindIFSt7_Mem_fnIMN4Util7Network13TCPConnectionEFvvEEPS6_EEvEEED1Ev@Base 0.2.0
 _ZNSt6thread11_State_implISt12_Bind_simpleIFSt5_BindIFSt7_Mem_fnIMN4Util7Network13TCPConnectionEFvvEEPS6_EEvEEED2Ev@Base 0.2.0
 _ZNSt6thread11_State_implISt12_Bind_simpleIFSt5_BindIFSt7_Mem_fnIMN4Util7Network14DataConnectionEFvvEEPS6_EEvEEE6_M_runEv@Base 0.2.0
 _ZNSt6thread11_State_implISt12_Bind_simpleIFSt5_BindIFSt7_Mem_fnIMN4Util7Network14DataConnectionEFvvEEPS6_EEvEEED0Ev@Base 0.2.0
 _ZNSt6thread11_State_implISt12_Bind_simpleIFSt5_BindIFSt7_Mem_fnIMN4Util7Network14DataConnectionEFvvEEPS6_EEvEEED1Ev@Base 0.2.0
 _ZNSt6thread11_State_implISt12_Bind_simpleIFSt5_BindIFSt7_Mem_fnIMN4Util7Network14DataConnectionEFvvEEPS6_EEvEEED2Ev@Base 0.2.0
 _ZNSt6thread11_State_implISt12_Bind_simpleIFSt5_BindIFSt7_Mem_fnIMN4Util7Network17ClockSynchronizerEFvvEEPS6_EEvEEE6_M_runEv@Base 0.2.0
 _ZNSt6thread11_State_implISt12_Bind_simpleIFSt5_BindIFSt7_Mem_fnIMN4Util7Network17ClockSynchronizerEFvvEEPS6_EEvEEED0Ev@Base 0.2.0
 _ZNSt6thread11_State_implISt12_Bind_simpleIFSt5_BindIFSt7_Mem_fnIMN4Util7Network17ClockSynchronizerEFvvEEPS6_EEvEEED1Ev@Base 0.2.0
 _ZNSt6thread11_State_implISt12_Bind_simpleIFSt5_BindIFSt7_Mem_fnIMN4Util7Network17ClockSynchronizerEFvvEEPS6_EEvEEED2Ev@Base 0.2.0
 _ZNSt6thread11_State_implISt12_Bind_simpleIFSt5_BindIFSt7_Mem_fnIMN4Util7Network9TCPServerEFvvEEPS6_EEvEEE6_M_runEv@Base 0.2.0
 _ZNSt6thread11_State_implISt12_Bind_simpleIFSt5_BindIFSt7_Mem_fnIMN4Util7Network9TCPServerEFvvEEPS6_EEvEEED0Ev@Base 0.2.0
 _ZNSt6thread11_State_implISt12_Bind_simpleIFSt5_BindIFSt7_Mem_fnIMN4Util7Network9TCPServerEFvvEEPS6_EEvEEED1Ev@Base 0.2.0
 _ZNSt6thread11_State_implISt12_Bind_simpleIFSt5_BindIFSt7_Mem_fnIMN4Util7Network9TCPServerEFvvEEPS6_EEvEEED2Ev@Base 0.2.0
 _ZNSt6vectorIN4Util10JSON_TokenESaIS1_EE12emplace_backIJS1_EEEvDpOT_@Base 0.2.0
 _ZNSt6vectorIN4Util10JSON_TokenESaIS1_EE19_M_emplace_back_auxIJS1_EEEvDpOT_@Base 0.2.0
 _ZNSt6vectorIN4Util10JSON_TokenESaIS1_EED1Ev@Base 0.2.0
 _ZNSt6vectorIN4Util10JSON_TokenESaIS1_EED2Ev@Base 0.2.0
 _ZNSt6vectorIN4Util7GenericESaIS1_EE19_M_emplace_back_auxIJS1_EEEvDpOT_@Base 0.2.0
 _ZNSt6vectorIN4Util7GenericESaIS1_EED1Ev@Base 0.2.0
 _ZNSt6vectorIN4Util7GenericESaIS1_EED2Ev@Base 0.2.0
 _ZNSt6vectorIN4Util9ReferenceINS0_13PixelAccessorEEESaIS3_EE19_M_emplace_back_auxIJS3_EEEvDpOT_@Base 0.2.0
 _ZNSt6vectorINSt7__cxx1112basic_stringIcSt11char_traitsIcESaIcEEESaIS5_EE19_M_emplace_back_auxIJRKS5_EEEvDpOT_@Base 0.2.0
 _ZNSt6vectorINSt7__cxx1112basic_stringIcSt11char_traitsIcESaIcEEESaIS5_EE19_M_emplace_back_auxIJRPcEEEvDpOT_@Base 0.2.0
 _ZNSt6vectorINSt7__cxx1112basic_stringIcSt11char_traitsIcESaIcEEESaIS5_EE19_M_emplace_back_auxIJS5_EEEvDpOT_@Base 0.2.0
 _ZNSt6vectorIPhSaIS0_EE19_M_emplace_back_auxIJS0_EEEvDpOT_@Base 0.2.0
 _ZNSt6vectorISt4pairItS_IhSaIhEEESaIS3_EED1Ev@Base 0.2.0
 _ZNSt6vectorISt4pairItS_IhSaIhEEESaIS3_EED2Ev@Base 0.2.0
 _ZNSt6vectorIhSaIhEE12emplace_backIJiEEEvDpOT_@Base 0.2.0
 _ZNSt6vectorIhSaIhEE15_M_range_insertIN9__gnu_cxx17__normal_iteratorIPKcNSt7__cxx1112basic_stringIcSt11char_traitsIcESaIcEEEEEEEvNS4_IPhS1_EET_SG_St20forward_iterator_tag@Base 0.2.0
 _ZNSt6vectorIhSaIhEE15_M_range_insertIN9__gnu_cxx17__normal_iteratorIPKhS1_EEEEvNS4_IPhS1_EET_SA_St20forward_iterator_tag@Base 0.2.0
 _ZNSt6vectorIhSaIhEE15_M_range_insertIN9__gnu_cxx17__normal_iteratorIPhS1_EEEEvS6_T_S7_St20forward_iterator_tag@Base 0.2.0
 _ZNSt6vectorIhSaIhEE15_M_range_insertIPKhEEvN9__gnu_cxx17__normal_iteratorIPhS1_EET_S9_St20forward_iterator_tag@Base 0.2.0
 _ZNSt6vectorIhSaIhEE17_M_default_appendEm@Base 0.2.0
 _ZNSt6vectorIhSaIhEE7reserveEm@Base 0.2.0
 _ZNSt6vectorIhSaIhEED1Ev@Base 0.2.0
 _ZNSt6vectorIhSaIhEED2Ev@Base 0.2.0
 _ZNSt6vectorIiSaIiEE19_M_emplace_back_auxIJlEEEvDpOT_@Base 0.2.0
 _ZNSt6vectorIjSaIjEE19_M_emplace_back_auxIJjEEEvDpOT_@Base 0.2.0
 _ZNSt6vectorIlSaIlEE12emplace_backIJlEEEvDpOT_@Base 0.2.0
 _ZNSt6vectorIlSaIlEE19_M_emplace_back_auxIJlEEEvDpOT_@Base 0.2.0
 _ZNSt7__cxx1110_List_baseIN4Util8FileNameESaIS2_EE8_M_clearEv@Base 0.2.0
 _ZNSt7__cxx1115basic_stringbufIcSt11char_traitsIcESaIcEED0Ev@Base 0.2.0
 _ZNSt7__cxx1115basic_stringbufIcSt11char_traitsIcESaIcEED1Ev@Base 0.2.0
 _ZNSt7__cxx1115basic_stringbufIcSt11char_traitsIcESaIcEED2Ev@Base 0.2.0
 _ZNSt8_Rb_treeIN4Util7Network11IPv4AddressES2_St9_IdentityIS2_ESt4lessIS2_ESaIS2_EE11equal_rangeERKS2_@Base 0.2.0
 _ZNSt8_Rb_treeIN4Util7Network11IPv4AddressES2_St9_IdentityIS2_ESt4lessIS2_ESaIS2_EE8_M_eraseEPSt13_Rb_tree_nodeIS2_E@Base 0.2.0
 _ZNSt8_Rb_treeINSt7__cxx1112basic_stringIcSt11char_traitsIcESaIcEEES5_St9_IdentityIS5_ESt4lessIS5_ESaIS5_EE16_M_insert_uniqueIS5_EESt4pairISt17_Rb_tree_iteratorIS5_EbEOT_@Base 0.2.0
 _ZNSt8_Rb_treeINSt7__cxx1112basic_stringIcSt11char_traitsIcESaIcEEES5_St9_IdentityIS5_ESt4lessIS5_ESaIS5_EE8_M_eraseEPSt13_Rb_tree_nodeIS5_E@Base 0.2.0
 _ZNSt8_Rb_treeINSt7__cxx1112basic_stringIcSt11char_traitsIcESaIcEEESt4pairIKS5_PN4Util11ZIPProvider9ZIPHandleEESt10_Select1stISC_ESt4lessIS5_ESaISC_EE11equal_rangeERS7_@Base 0.2.0
 _ZNSt8_Rb_treeINSt7__cxx1112basic_stringIcSt11char_traitsIcESaIcEEESt4pairIKS5_PN4Util11ZIPProvider9ZIPHandleEESt10_Select1stISC_ESt4lessIS5_ESaISC_EE24_M_get_insert_unique_posERS7_@Base 0.2.0
 _ZNSt8_Rb_treeINSt7__cxx1112basic_stringIcSt11char_traitsIcESaIcEEESt4pairIKS5_PN4Util11ZIPProvider9ZIPHandleEESt10_Select1stISC_ESt4lessIS5_ESaISC_EE29_M_get_insert_hint_unique_posESt23_Rb_tree_const_iteratorISC_ERS7_@Base 0.2.0
 _ZNSt8_Rb_treeINSt7__cxx1112basic_stringIcSt11char_traitsIcESaIcEEESt4pairIKS5_PN4Util11ZIPProvider9ZIPHandleEESt10_Select1stISC_ESt4lessIS5_ESaISC_EE5eraseERS7_@Base 0.2.0
 _ZNSt8_Rb_treeINSt7__cxx1112basic_stringIcSt11char_traitsIcESaIcEEESt4pairIKS5_PN4Util11ZIPProvider9ZIPHandleEESt10_Select1stISC_ESt4lessIS5_ESaISC_EE8_M_eraseEPSt13_Rb_tree_nodeISC_E@Base 0.2.0
 _ZNSt8_Rb_treeINSt7__cxx1112basic_stringIcSt11char_traitsIcESaIcEEESt4pairIKS5_PN4Util12DBFSProvider8DBHandleEESt10_Select1stISC_ESt4lessIS5_ESaISC_EE24_M_get_insert_unique_posERS7_@Base 0.2.0
 _ZNSt8_Rb_treeINSt7__cxx1112basic_stringIcSt11char_traitsIcESaIcEEESt4pairIKS5_PN4Util12DBFSProvider8DBHandleEESt10_Select1stISC_ESt4lessIS5_ESaISC_EE29_M_get_insert_hint_unique_posESt23_Rb_tree_const_iteratorISC_ERS7_@Base 0.2.0
 _ZNSt8_Rb_treeINSt7__cxx1112basic_stringIcSt11char_traitsIcESaIcEEESt4pairIKS5_PN4Util12DBFSProvider8DBHandleEESt10_Select1stISC_ESt4lessIS5_ESaISC_EE8_M_eraseEPSt13_Rb_tree_nodeISC_E@Base 0.2.0
 _ZNSt8_Rb_treeINSt7__cxx1112basic_stringIcSt11char_traitsIcESaIcEEESt4pairIKS5_S5_ESt10_Select1stIS8_ESt4lessIS5_ESaIS8_EE24_M_get_insert_unique_posERS7_@Base 0.2.0
 _ZNSt8_Rb_treeINSt7__cxx1112basic_stringIcSt11char_traitsIcESaIcEEESt4pairIKS5_S5_ESt10_Select1stIS8_ESt4lessIS5_ESaIS8_EE29_M_get_insert_hint_unique_posESt23_Rb_tree_const_iteratorIS8_ERS7_@Base 0.2.0
 _ZNSt8_Rb_treeINSt7__cxx1112basic_stringIcSt11char_traitsIcESaIcEEESt4pairIKS5_S5_ESt10_Select1stIS8_ESt4lessIS5_ESaIS8_EE8_M_eraseEPSt13_Rb_tree_nodeIS8_E@Base 0.2.0
 _ZNSt8_Rb_treeINSt7__cxx1112basic_stringIcSt11char_traitsIcESaIcEEESt4pairIKS5_St8functionIFPN4Util16GenericAttributeERKS6_IS5_PKNS9_19GenericAttributeMapEEEEESt10_Select1stISK_ESt4lessIS5_ESaISK_EE11equal_rangeERS7_@Base 0.2.0
 _ZNSt8_Rb_treeINSt7__cxx1112basic_stringIcSt11char_traitsIcESaIcEEESt4pairIKS5_St8functionIFPN4Util16GenericAttributeERKS6_IS5_PKNS9_19GenericAttributeMapEEEEESt10_Select1stISK_ESt4lessIS5_ESaISK_EE5eraseERS7_@Base 0.2.0
 _ZNSt8_Rb_treeINSt7__cxx1112basic_stringIcSt11char_traitsIcESaIcEEESt4pairIKS5_St8functionIFPN4Util16GenericAttributeERKS6_IS5_PKNS9_19GenericAttributeMapEEEEESt10_Select1stISK_ESt4lessIS5_ESaISK_EE8_M_eraseEPSt13_Rb_tree_nodeISK_E@Base 0.2.0
 _ZNSt8_Rb_treeINSt7__cxx1112basic_stringIcSt11char_traitsIcESaIcEEESt4pairIKS5_St8functionIFPN4Util18AbstractFSProviderEvEEESt10_Select1stISE_ESt4lessIS5_ESaISE_EE8_M_eraseEPSt13_Rb_tree_nodeISE_E@Base 0.2.0
 _ZNSt8_Rb_treeINSt7__cxx1112basic_stringIcSt11char_traitsIcESaIcEEESt4pairIKS5_St8functionIFPN4Util22AbstractBitmapStreamerEvEEESt10_Select1stISE_ESt4lessIS5_ESaISE_EE8_M_eraseEPSt13_Rb_tree_nodeISE_E@Base 0.2.0
 _ZNSt8_Rb_treeISt10type_indexSt4pairIKS0_St8functionIFS1_INSt7__cxx1112basic_stringIcSt11char_traitsIcESaIcEEES9_ERKS1_IPKN4Util16GenericAttributeEPKNSB_19GenericAttributeMapEEEEESt10_Select1stISN_ESt4lessIS0_ESaISN_EE11equal_rangeERS2_@Base 0.2.0
 _ZNSt8_Rb_treeISt10type_indexSt4pairIKS0_St8functionIFS1_INSt7__cxx1112basic_stringIcSt11char_traitsIcESaIcEEES9_ERKS1_IPKN4Util16GenericAttributeEPKNSB_19GenericAttributeMapEEEEESt10_Select1stISN_ESt4lessIS0_ESaISN_EE5eraseERS2_@Base 0.2.0
 _ZNSt8_Rb_treeISt10type_indexSt4pairIKS0_St8functionIFS1_INSt7__cxx1112basic_stringIcSt11char_traitsIcESaIcEEES9_ERKS1_IPKN4Util16GenericAttributeEPKNSB_19GenericAttributeMapEEEEESt10_Select1stISN_ESt4lessIS0_ESaISN_EE8_M_eraseEPSt13_Rb_tree_nodeISN_E@Base 0.2.0
 _ZNSt8_Rb_treeISt4pairIjjES0_IKS1_fESt10_Select1stIS3_ESt4lessIS1_ESaIS3_EE24_M_get_insert_unique_posERS2_@Base 0.2.0
 _ZNSt8_Rb_treeISt4pairIjjES0_IKS1_fESt10_Select1stIS3_ESt4lessIS1_ESaIS3_EE29_M_get_insert_hint_unique_posESt23_Rb_tree_const_iteratorIS3_ERS2_@Base 0.2.0
 _ZNSt8_Rb_treeISt4pairIjjES0_IKS1_fESt10_Select1stIS3_ESt4lessIS1_ESaIS3_EE8_M_eraseEPSt13_Rb_tree_nodeIS3_E@Base 0.2.0
 _ZNSt8_Rb_treeISt4pairItN4Util16StringIdentifierEES0_IKS3_St6vectorIhSaIhEEESt10_Select1stIS8_ESt4lessIS3_ESaIS8_EE24_M_get_insert_unique_posERS4_@Base 0.2.0
 _ZNSt8_Rb_treeISt4pairItN4Util16StringIdentifierEES0_IKS3_St6vectorIhSaIhEEESt10_Select1stIS8_ESt4lessIS3_ESaIS8_EE29_M_get_insert_hint_unique_posESt23_Rb_tree_const_iteratorIS8_ERS4_@Base 0.2.0
 _ZNSt8_Rb_treeISt4pairItN4Util16StringIdentifierEES0_IKS3_St6vectorIhSaIhEEESt10_Select1stIS8_ESt4lessIS3_ESaIS8_EE8_M_eraseEPSt13_Rb_tree_nodeIS8_E@Base 0.2.0
 _ZNSt8__detail16_Hashtable_allocISaINS_10_Hash_nodeISt4pairIKN4Util16StringIdentifierENS3_7GenericEELb0EEEEE16_M_allocate_nodeIJRKS7_EEEPS8_DpOT_@Base 0.2.0
 _ZNSt8__detail16_Hashtable_allocISaINS_10_Hash_nodeISt4pairIKN4Util16StringIdentifierENS3_7GenericEELb0EEEEE18_M_deallocate_nodeEPS8_@Base 0.2.0
 _ZNSt8__detail9_Map_baseIiSt4pairIKiN4Util2UI3KeyEESaIS6_ENS_10_Select1stESt8equal_toIiESt4hashIiENS_18_Mod_range_hashingENS_20_Default_ranged_hashENS_20_Prime_rehash_policyENS_17_Hashtable_traitsILb0ELb0ELb1EEELb1EEixEOi@Base 0.2.0
 _ZNSt8__detail9_Map_baseImSt4pairIKmN4Util2UI3KeyEESaIS6_ENS_10_Select1stESt8equal_toImESt4hashImENS_18_Mod_range_hashingENS_20_Default_ranged_hashENS_20_Prime_rehash_policyENS_17_Hashtable_traitsILb0ELb0ELb1EEELb1EEixEOm@Base 0.2.0
 _ZNSt8functionIFPN4Util16GenericAttributeERKSt4pairINSt7__cxx1112basic_stringIcSt11char_traitsIcESaIcEEEPKNS0_19GenericAttributeMapEEEEC1ERKSH_@Base 0.2.0
 _ZNSt8functionIFPN4Util16GenericAttributeERKSt4pairINSt7__cxx1112basic_stringIcSt11char_traitsIcESaIcEEEPKNS0_19GenericAttributeMapEEEEC2ERKSH_@Base 0.2.0
 _ZNSt8functionIFPN4Util18AbstractFSProviderEvEEC1ERKS4_@Base 0.2.0
 _ZNSt8functionIFPN4Util18AbstractFSProviderEvEEC2ERKS4_@Base 0.2.0
 _ZNSt8functionIFPN4Util22AbstractBitmapStreamerEvEEC1ERKS4_@Base 0.2.0
 _ZNSt8functionIFPN4Util22AbstractBitmapStreamerEvEEC2ERKS4_@Base 0.2.0
 _ZNSt8functionIFSt4pairINSt7__cxx1112basic_stringIcSt11char_traitsIcESaIcEEES6_ERKS0_IPKN4Util16GenericAttributeEPKNS8_19GenericAttributeMapEEEEC1ERKSJ_@Base 0.2.0
 _ZNSt8functionIFSt4pairINSt7__cxx1112basic_stringIcSt11char_traitsIcESaIcEEES6_ERKS0_IPKN4Util16GenericAttributeEPKNS8_19GenericAttributeMapEEEEC2ERKSJ_@Base 0.2.0
 _ZNSt8functionIFSt4pairINSt7__cxx1112basic_stringIcSt11char_traitsIcESaIcEEES6_ERKSt10type_indexEEC1ISt5_BindIFSt7_Mem_fnIMN4Util14WrapperFactoryIS0_IPKNSG_16GenericAttributeEPKNSG_19GenericAttributeMapEES7_S8_S_IFS7_RKSO_EENSG_16FallbackPolicies17ExceptionFallbackEEEFS7_SA_SQ_EEPSV_St12_PlaceholderILi1EESO_EEvvEET_@Base 0.2.0
 _ZNSt8functionIFSt4pairINSt7__cxx1112basic_stringIcSt11char_traitsIcESaIcEEES6_ERKSt10type_indexEEC2ISt5_BindIFSt7_Mem_fnIMN4Util14WrapperFactoryIS0_IPKNSG_16GenericAttributeEPKNSG_19GenericAttributeMapEES7_S8_S_IFS7_RKSO_EENSG_16FallbackPolicies17ExceptionFallbackEEEFS7_SA_SQ_EEPSV_St12_PlaceholderILi1EESO_EEvvEET_@Base 0.2.0
 _ZNSt8functionIFSt5dequeIN4Util2UI5EventESaIS3_EEvEEC1ERKS7_@Base 0.2.0
 _ZNSt8functionIFSt5dequeIN4Util2UI5EventESaIS3_EEvEEC2ERKS7_@Base 0.2.0
 _ZNSt8functionIFbRKN4Util2UI5EventEEEC1ERKS6_@Base 0.2.0
 _ZNSt8functionIFbRKN4Util2UI5EventEEEC2ERKS6_@Base 0.2.0
 _ZSt4moveIN4Util2UI5EventEESt15_Deque_iteratorIT_RS4_PS4_ES3_IS4_RKS4_PS8_ESB_S7_@Base 0.2.0
 _ZStplIcSt11char_traitsIcESaIcEENSt7__cxx1112basic_stringIT_T0_T1_EEOS8_PKS5_@Base 0.2.0
 _ZStplIcSt11char_traitsIcESaIcEENSt7__cxx1112basic_stringIT_T0_T1_EEOS8_S9_@Base 0.2.0
 _ZStplIcSt11char_traitsIcESaIcEENSt7__cxx1112basic_stringIT_T0_T1_EEPKS5_OS8_@Base 0.2.0
 _ZStplIcSt11char_traitsIcESaIcEENSt7__cxx1112basic_stringIT_T0_T1_EEPKS5_RKS8_@Base 0.2.0
 _ZStplIcSt11char_traitsIcESaIcEENSt7__cxx1112basic_stringIT_T0_T1_EERKS8_SA_@Base 0.2.0
 _ZTIFPN4Util13BoolAttributeERKSt4pairINSt7__cxx1112basic_stringIcSt11char_traitsIcESaIcEEEPKNS_19GenericAttributeMapEEE@Base 0.2.0
 _ZTIFPN4Util16_NumberAttributeIcEERKSt4pairINSt7__cxx1112basic_stringIcSt11char_traitsIcESaIcEEEPKNS_19GenericAttributeMapEEE@Base 0.2.0
 _ZTIFPN4Util16_NumberAttributeIdEERKSt4pairINSt7__cxx1112basic_stringIcSt11char_traitsIcESaIcEEEPKNS_19GenericAttributeMapEEE@Base 0.2.0
 _ZTIFPN4Util16_NumberAttributeIfEERKSt4pairINSt7__cxx1112basic_stringIcSt11char_traitsIcESaIcEEEPKNS_19GenericAttributeMapEEE@Base 0.2.0
 _ZTIFPN4Util16_NumberAttributeIhEERKSt4pairINSt7__cxx1112basic_stringIcSt11char_traitsIcESaIcEEEPKNS_19GenericAttributeMapEEE@Base 0.2.0
 _ZTIFPN4Util16_NumberAttributeIiEERKSt4pairINSt7__cxx1112basic_stringIcSt11char_traitsIcESaIcEEEPKNS_19GenericAttributeMapEEE@Base 0.2.0
 _ZTIFPN4Util16_NumberAttributeIjEERKSt4pairINSt7__cxx1112basic_stringIcSt11char_traitsIcESaIcEEEPKNS_19GenericAttributeMapEEE@Base 0.2.0
 _ZTIFPN4Util16_NumberAttributeIlEERKSt4pairINSt7__cxx1112basic_stringIcSt11char_traitsIcESaIcEEEPKNS_19GenericAttributeMapEEE@Base 0.2.0
 _ZTIFPN4Util16_NumberAttributeImEERKSt4pairINSt7__cxx1112basic_stringIcSt11char_traitsIcESaIcEEEPKNS_19GenericAttributeMapEEE@Base 0.2.0
 _ZTIFPN4Util16_NumberAttributeIsEERKSt4pairINSt7__cxx1112basic_stringIcSt11char_traitsIcESaIcEEEPKNS_19GenericAttributeMapEEE@Base 0.2.0
 _ZTIFPN4Util16_NumberAttributeItEERKSt4pairINSt7__cxx1112basic_stringIcSt11char_traitsIcESaIcEEEPKNS_19GenericAttributeMapEEE@Base 0.2.0
 _ZTIFPN4Util16_StringAttributeINSt7__cxx1112basic_stringIcSt11char_traitsIcESaIcEEEEERKSt4pairIS6_PKNS_19GenericAttributeMapEEE@Base 0.2.0
 _ZTIFPN4Util19GenericAttributeMapERKSt4pairINSt7__cxx1112basic_stringIcSt11char_traitsIcESaIcEEEPKS0_EE@Base 0.2.0
 _ZTIFPN4Util20GenericAttributeListERKSt4pairINSt7__cxx1112basic_stringIcSt11char_traitsIcESaIcEEEPKNS_19GenericAttributeMapEEE@Base 0.2.0
 _ZTIFSt4pairINSt7__cxx1112basic_stringIcSt11char_traitsIcESaIcEEES5_ERKS_IPKN4Util16GenericAttributeEPKNS7_19GenericAttributeMapEEE@Base 0.2.0
 _ZTIN4Util10FSProviderE@Base 0.2.0
 _ZTIN4Util11NetProviderE@Base 0.2.0
 _ZTIN4Util11StreamerPNGE@Base 0.2.0
 _ZTIN4Util11StreamerSDLE@Base 0.2.0
 _ZTIN4Util11ZIPProviderE@Base 0.2.0
 _ZTIN4Util12DBFSProviderE@Base 0.2.0
 _ZTIN4Util13BoolAttributeE@Base 0.2.0
 _ZTIN4Util13ObjectCreatorINS_11StreamerPNGEEE@Base 0.2.0
 _ZTIN4Util13ObjectCreatorINS_11StreamerSDLEEE@Base 0.2.0
 _ZTIN4Util13ObjectCreatorINS_16StreamerSDLImageEEE@Base 0.2.0
 _ZTIN4Util13PixelAccessorE@Base 0.2.0
 _ZTIN4Util14PixelAccessorFE@Base 0.2.0
 _ZTIN4Util15ArchiveProviderE@Base 0.2.0
 _ZTIN4Util15PixelAccessorUbE@Base 0.2.0
 _ZTIN4Util16AbstractStreamerE@Base 0.2.0
 _ZTIN4Util16FallbackPolicies17ExceptionFallbackIPNS_16GenericAttributeENSt7__cxx1112basic_stringIcSt11char_traitsIcESaIcEEEE9ExceptionE@Base 0.2.0
 _ZTIN4Util16FallbackPolicies17ExceptionFallbackISt4pairINSt7__cxx1112basic_stringIcSt11char_traitsIcESaIcEEES8_ESt10type_indexE9ExceptionE@Base 0.2.0
 _ZTIN4Util16GenericAttributeE@Base 0.2.0
 _ZTIN4Util16PixelAccessor4ubE@Base 0.2.0
 _ZTIN4Util16PixelAccessorI32E@Base 0.2.0
 _ZTIN4Util16PixelAccessorU32E@Base 0.2.0
 _ZTIN4Util16ReferenceCounterINS_13PixelAccessorENS_13ObjectDeleterIS1_EEEE@Base 0.2.0
 _ZTIN4Util16ReferenceCounterINS_18AbstractFSProviderENS_13ObjectDeleterIS1_EEEE@Base 0.2.0
 _ZTIN4Util16ReferenceCounterINS_7Network13TCPConnectionENS_13ObjectDeleterIS2_EEEE@Base 0.2.0
 _ZTIN4Util16StreamerSDLImageE@Base 0.2.0
 _ZTIN4Util16WrapperAttributeIPvEE@Base 0.2.0
 _ZTIN4Util16_NumberAttributeIcEE@Base 0.2.0
 _ZTIN4Util16_NumberAttributeIdEE@Base 0.2.0
 _ZTIN4Util16_NumberAttributeIfEE@Base 0.2.0
 _ZTIN4Util16_NumberAttributeIhEE@Base 0.2.0
 _ZTIN4Util16_NumberAttributeIiEE@Base 0.2.0
 _ZTIN4Util16_NumberAttributeIjEE@Base 0.2.0
 _ZTIN4Util16_NumberAttributeIlEE@Base 0.2.0
 _ZTIN4Util16_NumberAttributeImEE@Base 0.2.0
 _ZTIN4Util16_NumberAttributeIsEE@Base 0.2.0
 _ZTIN4Util16_NumberAttributeItEE@Base 0.2.0
 _ZTIN4Util16_StringAttributeINSt7__cxx1112basic_stringIcSt11char_traitsIcESaIcEEEEE@Base 0.2.0
 _ZTIN4Util18AbstractFSProviderE@Base 0.2.0
 _ZTIN4Util19GenericAttributeMapE@Base 0.2.0
 _ZTIN4Util20GenericAttributeListE@Base 0.2.0
 _ZTIN4Util20PointerHolderCreatorINS_10FSProviderEEE@Base 0.2.0
 _ZTIN4Util20PointerHolderCreatorINS_11NetProviderEEE@Base 0.2.0
 _ZTIN4Util20PointerHolderCreatorINS_11ZIPProviderEEE@Base 0.2.0
 _ZTIN4Util20PointerHolderCreatorINS_12DBFSProviderEEE@Base 0.2.0
 _ZTIN4Util20PointerHolderCreatorINS_15ArchiveProviderEEE@Base 0.2.0
 _ZTIN4Util22AbstractBitmapStreamerE@Base 0.2.0
 _ZTIN4Util22GenericNumberAttributeE@Base 0.2.0
 _ZTIN4Util22GenericStringAttributeE@Base 0.2.0
 _ZTIN4Util2UI12SplashScreenE@Base 0.2.0
 _ZTIN4Util2UI15SplashScreenX11E@Base 0.2.0
 _ZTIN4Util2UI6WindowE@Base 0.2.0
 _ZTIN4Util2UI9WindowEGLE@Base 0.2.0
 _ZTIN4Util2UI9WindowGLXE@Base 0.2.0
 _ZTIN4Util2UI9WindowSDLE@Base 0.2.0
 _ZTIN4Util2UI9WindowX11E@Base 0.2.0
 _ZTIN4Util7Generic15AbstractStorageE@Base 0.2.0
 _ZTIN4Util7Generic7StorageINSt7__cxx1112basic_stringIcSt11char_traitsIcESaIcEEEEE@Base 0.2.0
 _ZTIN4Util7Generic7StorageISt13unordered_mapINS_16StringIdentifierES0_St4hashIS3_ESt8equal_toIS3_ESaISt4pairIKS3_S0_EEEEE@Base 0.2.0
 _ZTIN4Util7Generic7StorageISt6vectorIS0_SaIS0_EEEE@Base 0.2.0
 _ZTIN4Util7Generic7StorageIbEE@Base 0.2.0
 _ZTIN4Util7Generic7StorageIcEE@Base 0.2.0
 _ZTIN4Util7Generic7StorageIdEE@Base 0.2.0
 _ZTIN4Util7Generic7StorageIfEE@Base 0.2.0
 _ZTIN4Util7Generic7StorageIhEE@Base 0.2.0
 _ZTIN4Util7Generic7StorageIiEE@Base 0.2.0
 _ZTIN4Util7Generic7StorageIjEE@Base 0.2.0
 _ZTIN4Util7Generic7StorageIlEE@Base 0.2.0
 _ZTIN4Util7Generic7StorageImEE@Base 0.2.0
 _ZTIN4Util7Generic7StorageIsEE@Base 0.2.0
 _ZTIN4Util7Generic7StorageItEE@Base 0.2.0
 _ZTIN4Util7Network13TCPConnectionE@Base 0.2.0
 _ZTIN4Util7Network16UDPNetworkSocketE@Base 0.2.0
 _ZTIN4Util7Network9TCPServerE@Base 0.2.0
 _ZTINSt6thread11_State_implISt12_Bind_simpleIFSt5_BindIFSt7_Mem_fnIMN4Util2UI15SplashScreenX11EFvvEEPS6_EEvEEEE@Base 0.2.0
 _ZTINSt6thread11_State_implISt12_Bind_simpleIFSt5_BindIFSt7_Mem_fnIMN4Util7Network13TCPConnectionEFvvEEPS6_EEvEEEE@Base 0.2.0
 _ZTINSt6thread11_State_implISt12_Bind_simpleIFSt5_BindIFSt7_Mem_fnIMN4Util7Network14DataConnectionEFvvEEPS6_EEvEEEE@Base 0.2.0
 _ZTINSt6thread11_State_implISt12_Bind_simpleIFSt5_BindIFSt7_Mem_fnIMN4Util7Network17ClockSynchronizerEFvvEEPS6_EEvEEEE@Base 0.2.0
 _ZTINSt6thread11_State_implISt12_Bind_simpleIFSt5_BindIFSt7_Mem_fnIMN4Util7Network9TCPServerEFvvEEPS6_EEvEEEE@Base 0.2.0
 _ZTIPFPN4Util13BoolAttributeERKSt4pairINSt7__cxx1112basic_stringIcSt11char_traitsIcESaIcEEEPKNS_19GenericAttributeMapEEE@Base 0.2.0
 _ZTIPFPN4Util16_NumberAttributeIcEERKSt4pairINSt7__cxx1112basic_stringIcSt11char_traitsIcESaIcEEEPKNS_19GenericAttributeMapEEE@Base 0.2.0
 _ZTIPFPN4Util16_NumberAttributeIdEERKSt4pairINSt7__cxx1112basic_stringIcSt11char_traitsIcESaIcEEEPKNS_19GenericAttributeMapEEE@Base 0.2.0
 _ZTIPFPN4Util16_NumberAttributeIfEERKSt4pairINSt7__cxx1112basic_stringIcSt11char_traitsIcESaIcEEEPKNS_19GenericAttributeMapEEE@Base 0.2.0
 _ZTIPFPN4Util16_NumberAttributeIhEERKSt4pairINSt7__cxx1112basic_stringIcSt11char_traitsIcESaIcEEEPKNS_19GenericAttributeMapEEE@Base 0.2.0
 _ZTIPFPN4Util16_NumberAttributeIiEERKSt4pairINSt7__cxx1112basic_stringIcSt11char_traitsIcESaIcEEEPKNS_19GenericAttributeMapEEE@Base 0.2.0
 _ZTIPFPN4Util16_NumberAttributeIjEERKSt4pairINSt7__cxx1112basic_stringIcSt11char_traitsIcESaIcEEEPKNS_19GenericAttributeMapEEE@Base 0.2.0
 _ZTIPFPN4Util16_NumberAttributeIlEERKSt4pairINSt7__cxx1112basic_stringIcSt11char_traitsIcESaIcEEEPKNS_19GenericAttributeMapEEE@Base 0.2.0
 _ZTIPFPN4Util16_NumberAttributeImEERKSt4pairINSt7__cxx1112basic_stringIcSt11char_traitsIcESaIcEEEPKNS_19GenericAttributeMapEEE@Base 0.2.0
 _ZTIPFPN4Util16_NumberAttributeIsEERKSt4pairINSt7__cxx1112basic_stringIcSt11char_traitsIcESaIcEEEPKNS_19GenericAttributeMapEEE@Base 0.2.0
 _ZTIPFPN4Util16_NumberAttributeItEERKSt4pairINSt7__cxx1112basic_stringIcSt11char_traitsIcESaIcEEEPKNS_19GenericAttributeMapEEE@Base 0.2.0
 _ZTIPFPN4Util16_StringAttributeINSt7__cxx1112basic_stringIcSt11char_traitsIcESaIcEEEEERKSt4pairIS6_PKNS_19GenericAttributeMapEEE@Base 0.2.0
 _ZTIPFPN4Util19GenericAttributeMapERKSt4pairINSt7__cxx1112basic_stringIcSt11char_traitsIcESaIcEEEPKS0_EE@Base 0.2.0
 _ZTIPFPN4Util20GenericAttributeListERKSt4pairINSt7__cxx1112basic_stringIcSt11char_traitsIcESaIcEEEPKNS_19GenericAttributeMapEEE@Base 0.2.0
 _ZTIPFSt4pairINSt7__cxx1112basic_stringIcSt11char_traitsIcESaIcEEES5_ERKS_IPKN4Util16GenericAttributeEPKNS7_19GenericAttributeMapEEE@Base 0.2.0
 _ZTISt17_Weak_result_typeISt7_Mem_fnIMN4Util14WrapperFactoryISt4pairINSt7__cxx1112basic_stringIcSt11char_traitsIcESaIcEEEPKNS1_19GenericAttributeMapEEPNS1_16GenericAttributeES9_St8functionIFSF_RKSD_EENS1_16FallbackPolicies17ExceptionFallbackEEEFSF_RKS9_SI_EEE@Base 0.2.0
 _ZTISt17_Weak_result_typeISt7_Mem_fnIMN4Util14WrapperFactoryISt4pairIPKNS1_16GenericAttributeEPKNS1_19GenericAttributeMapEES3_INSt7__cxx1112basic_stringIcSt11char_traitsIcESaIcEEESG_ESt10type_indexSt8functionIFSH_RKSA_EENS1_16FallbackPolicies17ExceptionFallbackEEEFSH_RKSI_SL_EEE@Base 0.2.0
 _ZTISt17_Weak_result_typeISt7_Mem_fnIMN4Util2UI12EventContextEFbRKNS2_5EventEEEE@Base 0.2.0
 _ZTISt17_Weak_result_typeISt7_Mem_fnIMN4Util7FactoryIPNS1_18AbstractFSProviderENSt7__cxx1112basic_stringIcSt11char_traitsIcESaIcEEESt8functionIFS4_vEENS1_16FallbackPolicies12NULLFallbackEEEFS4_RKSA_EEE@Base 0.2.0
 _ZTISt17_Weak_result_typeISt7_Mem_fnIMN4Util7FactoryIPNS1_22AbstractBitmapStreamerENSt7__cxx1112basic_stringIcSt11char_traitsIcESaIcEEESt8functionIFS4_vEENS1_16FallbackPolicies12NULLFallbackEEEFS4_RKSA_EEE@Base 0.2.0
 _ZTISt22_Maybe_get_result_typeISt7_Mem_fnIMN4Util14WrapperFactoryISt4pairINSt7__cxx1112basic_stringIcSt11char_traitsIcESaIcEEEPKNS1_19GenericAttributeMapEEPNS1_16GenericAttributeES9_St8functionIFSF_RKSD_EENS1_16FallbackPolicies17ExceptionFallbackEEEFSF_RKS9_SI_EEvE@Base 0.2.0
 _ZTISt22_Maybe_get_result_typeISt7_Mem_fnIMN4Util14WrapperFactoryISt4pairIPKNS1_16GenericAttributeEPKNS1_19GenericAttributeMapEES3_INSt7__cxx1112basic_stringIcSt11char_traitsIcESaIcEEESG_ESt10type_indexSt8functionIFSH_RKSA_EENS1_16FallbackPolicies17ExceptionFallbackEEEFSH_RKSI_SL_EEvE@Base 0.2.0
 _ZTISt22_Maybe_get_result_typeISt7_Mem_fnIMN4Util2UI12EventContextEFbRKNS2_5EventEEEvE@Base 0.2.0
 _ZTISt22_Maybe_get_result_typeISt7_Mem_fnIMN4Util7FactoryIPNS1_18AbstractFSProviderENSt7__cxx1112basic_stringIcSt11char_traitsIcESaIcEEESt8functionIFS4_vEENS1_16FallbackPolicies12NULLFallbackEEEFS4_RKSA_EEvE@Base 0.2.0
 _ZTISt22_Maybe_get_result_typeISt7_Mem_fnIMN4Util7FactoryIPNS1_22AbstractBitmapStreamerENSt7__cxx1112basic_stringIcSt11char_traitsIcESaIcEEESt8functionIFS4_vEENS1_16FallbackPolicies12NULLFallbackEEEFS4_RKSA_EEvE@Base 0.2.0
 _ZTISt22_Weak_result_type_implISt7_Mem_fnIMN4Util14WrapperFactoryISt4pairINSt7__cxx1112basic_stringIcSt11char_traitsIcESaIcEEEPKNS1_19GenericAttributeMapEEPNS1_16GenericAttributeES9_St8functionIFSF_RKSD_EENS1_16FallbackPolicies17ExceptionFallbackEEEFSF_RKS9_SI_EEE@Base 0.2.0
 _ZTISt22_Weak_result_type_implISt7_Mem_fnIMN4Util14WrapperFactoryISt4pairIPKNS1_16GenericAttributeEPKNS1_19GenericAttributeMapEES3_INSt7__cxx1112basic_stringIcSt11char_traitsIcESaIcEEESG_ESt10type_indexSt8functionIFSH_RKSA_EENS1_16FallbackPolicies17ExceptionFallbackEEEFSH_RKSI_SL_EEE@Base 0.2.0
 _ZTISt22_Weak_result_type_implISt7_Mem_fnIMN4Util2UI12EventContextEFbRKNS2_5EventEEEE@Base 0.2.0
 _ZTISt22_Weak_result_type_implISt7_Mem_fnIMN4Util7FactoryIPNS1_18AbstractFSProviderENSt7__cxx1112basic_stringIcSt11char_traitsIcESaIcEEESt8functionIFS4_vEENS1_16FallbackPolicies12NULLFallbackEEEFS4_RKSA_EEE@Base 0.2.0
 _ZTISt22_Weak_result_type_implISt7_Mem_fnIMN4Util7FactoryIPNS1_22AbstractBitmapStreamerENSt7__cxx1112basic_stringIcSt11char_traitsIcESaIcEEESt8functionIFS4_vEENS1_16FallbackPolicies12NULLFallbackEEEFS4_RKSA_EEE@Base 0.2.0
 _ZTISt5_BindIFSt7_Mem_fnIMN4Util14WrapperFactoryISt4pairINSt7__cxx1112basic_stringIcSt11char_traitsIcESaIcEEEPKNS1_19GenericAttributeMapEEPNS1_16GenericAttributeES9_St8functionIFSF_RKSD_EENS1_16FallbackPolicies17ExceptionFallbackEEEFSF_RKS9_SI_EEPSN_St12_PlaceholderILi1EESD_EE@Base 0.2.0
 _ZTISt5_BindIFSt7_Mem_fnIMN4Util14WrapperFactoryISt4pairIPKNS1_16GenericAttributeEPKNS1_19GenericAttributeMapEES3_INSt7__cxx1112basic_stringIcSt11char_traitsIcESaIcEEESG_ESt10type_indexSt8functionIFSH_RKSA_EENS1_16FallbackPolicies17ExceptionFallbackEEEFSH_RKSI_SL_EEPSQ_St12_PlaceholderILi1EESA_EE@Base 0.2.0
 _ZTISt5_BindIFSt7_Mem_fnIMN4Util2UI12EventContextEFbRKNS2_5EventEEEPS3_St12_PlaceholderILi1EEEE@Base 0.2.0
 _ZTISt5_BindIFSt7_Mem_fnIMN4Util7FactoryIPNS1_18AbstractFSProviderENSt7__cxx1112basic_stringIcSt11char_traitsIcESaIcEEESt8functionIFS4_vEENS1_16FallbackPolicies12NULLFallbackEEEFS4_RKSA_EEPSG_St12_PlaceholderILi1EEEE@Base 0.2.0
 _ZTISt5_BindIFSt7_Mem_fnIMN4Util7FactoryIPNS1_22AbstractBitmapStreamerENSt7__cxx1112basic_stringIcSt11char_traitsIcESaIcEEESt8functionIFS4_vEENS1_16FallbackPolicies12NULLFallbackEEEFS4_RKSA_EEPSG_St12_PlaceholderILi1EEEE@Base 0.2.0
 _ZTSFPN4Util13BoolAttributeERKSt4pairINSt7__cxx1112basic_stringIcSt11char_traitsIcESaIcEEEPKNS_19GenericAttributeMapEEE@Base 0.2.0
 _ZTSFPN4Util16_NumberAttributeIcEERKSt4pairINSt7__cxx1112basic_stringIcSt11char_traitsIcESaIcEEEPKNS_19GenericAttributeMapEEE@Base 0.2.0
 _ZTSFPN4Util16_NumberAttributeIdEERKSt4pairINSt7__cxx1112basic_stringIcSt11char_traitsIcESaIcEEEPKNS_19GenericAttributeMapEEE@Base 0.2.0
 _ZTSFPN4Util16_NumberAttributeIfEERKSt4pairINSt7__cxx1112basic_stringIcSt11char_traitsIcESaIcEEEPKNS_19GenericAttributeMapEEE@Base 0.2.0
 _ZTSFPN4Util16_NumberAttributeIhEERKSt4pairINSt7__cxx1112basic_stringIcSt11char_traitsIcESaIcEEEPKNS_19GenericAttributeMapEEE@Base 0.2.0
 _ZTSFPN4Util16_NumberAttributeIiEERKSt4pairINSt7__cxx1112basic_stringIcSt11char_traitsIcESaIcEEEPKNS_19GenericAttributeMapEEE@Base 0.2.0
 _ZTSFPN4Util16_NumberAttributeIjEERKSt4pairINSt7__cxx1112basic_stringIcSt11char_traitsIcESaIcEEEPKNS_19GenericAttributeMapEEE@Base 0.2.0
 _ZTSFPN4Util16_NumberAttributeIlEERKSt4pairINSt7__cxx1112basic_stringIcSt11char_traitsIcESaIcEEEPKNS_19GenericAttributeMapEEE@Base 0.2.0
 _ZTSFPN4Util16_NumberAttributeImEERKSt4pairINSt7__cxx1112basic_stringIcSt11char_traitsIcESaIcEEEPKNS_19GenericAttributeMapEEE@Base 0.2.0
 _ZTSFPN4Util16_NumberAttributeIsEERKSt4pairINSt7__cxx1112basic_stringIcSt11char_traitsIcESaIcEEEPKNS_19GenericAttributeMapEEE@Base 0.2.0
 _ZTSFPN4Util16_NumberAttributeItEERKSt4pairINSt7__cxx1112basic_stringIcSt11char_traitsIcESaIcEEEPKNS_19GenericAttributeMapEEE@Base 0.2.0
 _ZTSFPN4Util16_StringAttributeINSt7__cxx1112basic_stringIcSt11char_traitsIcESaIcEEEEERKSt4pairIS6_PKNS_19GenericAttributeMapEEE@Base 0.2.0
 _ZTSFPN4Util19GenericAttributeMapERKSt4pairINSt7__cxx1112basic_stringIcSt11char_traitsIcESaIcEEEPKS0_EE@Base 0.2.0
 _ZTSFPN4Util20GenericAttributeListERKSt4pairINSt7__cxx1112basic_stringIcSt11char_traitsIcESaIcEEEPKNS_19GenericAttributeMapEEE@Base 0.2.0
 _ZTSFSt4pairINSt7__cxx1112basic_stringIcSt11char_traitsIcESaIcEEES5_ERKS_IPKN4Util16GenericAttributeEPKNS7_19GenericAttributeMapEEE@Base 0.2.0
 _ZTSN4Util10FSProviderE@Base 0.2.0
 _ZTSN4Util11NetProviderE@Base 0.2.0
 _ZTSN4Util11StreamerPNGE@Base 0.2.0
 _ZTSN4Util11StreamerSDLE@Base 0.2.0
 _ZTSN4Util11ZIPProviderE@Base 0.2.0
 _ZTSN4Util12DBFSProviderE@Base 0.2.0
 _ZTSN4Util13BoolAttributeE@Base 0.2.0
 _ZTSN4Util13ObjectCreatorINS_11StreamerPNGEEE@Base 0.2.0
 _ZTSN4Util13ObjectCreatorINS_11StreamerSDLEEE@Base 0.2.0
 _ZTSN4Util13ObjectCreatorINS_16StreamerSDLImageEEE@Base 0.2.0
 _ZTSN4Util13PixelAccessorE@Base 0.2.0
 _ZTSN4Util14PixelAccessorFE@Base 0.2.0
 _ZTSN4Util15ArchiveProviderE@Base 0.2.0
 _ZTSN4Util15PixelAccessorUbE@Base 0.2.0
 _ZTSN4Util16AbstractStreamerE@Base 0.2.0
 _ZTSN4Util16FallbackPolicies17ExceptionFallbackIPNS_16GenericAttributeENSt7__cxx1112basic_stringIcSt11char_traitsIcESaIcEEEE9ExceptionE@Base 0.2.0
 _ZTSN4Util16FallbackPolicies17ExceptionFallbackISt4pairINSt7__cxx1112basic_stringIcSt11char_traitsIcESaIcEEES8_ESt10type_indexE9ExceptionE@Base 0.2.0
 _ZTSN4Util16GenericAttributeE@Base 0.2.0
 _ZTSN4Util16PixelAccessor4ubE@Base 0.2.0
 _ZTSN4Util16PixelAccessorI32E@Base 0.2.0
 _ZTSN4Util16PixelAccessorU32E@Base 0.2.0
 _ZTSN4Util16ReferenceCounterINS_13PixelAccessorENS_13ObjectDeleterIS1_EEEE@Base 0.2.0
 _ZTSN4Util16ReferenceCounterINS_18AbstractFSProviderENS_13ObjectDeleterIS1_EEEE@Base 0.2.0
 _ZTSN4Util16ReferenceCounterINS_7Network13TCPConnectionENS_13ObjectDeleterIS2_EEEE@Base 0.2.0
 _ZTSN4Util16StreamerSDLImageE@Base 0.2.0
 _ZTSN4Util16WrapperAttributeIPvEE@Base 0.2.0
 _ZTSN4Util16_NumberAttributeIcEE@Base 0.2.0
 _ZTSN4Util16_NumberAttributeIdEE@Base 0.2.0
 _ZTSN4Util16_NumberAttributeIfEE@Base 0.2.0
 _ZTSN4Util16_NumberAttributeIhEE@Base 0.2.0
 _ZTSN4Util16_NumberAttributeIiEE@Base 0.2.0
 _ZTSN4Util16_NumberAttributeIjEE@Base 0.2.0
 _ZTSN4Util16_NumberAttributeIlEE@Base 0.2.0
 _ZTSN4Util16_NumberAttributeImEE@Base 0.2.0
 _ZTSN4Util16_NumberAttributeIsEE@Base 0.2.0
 _ZTSN4Util16_NumberAttributeItEE@Base 0.2.0
 _ZTSN4Util16_StringAttributeINSt7__cxx1112basic_stringIcSt11char_traitsIcESaIcEEEEE@Base 0.2.0
 _ZTSN4Util18AbstractFSProviderE@Base 0.2.0
 _ZTSN4Util19GenericAttributeMapE@Base 0.2.0
 _ZTSN4Util20GenericAttributeListE@Base 0.2.0
 _ZTSN4Util20PointerHolderCreatorINS_10FSProviderEEE@Base 0.2.0
 _ZTSN4Util20PointerHolderCreatorINS_11NetProviderEEE@Base 0.2.0
 _ZTSN4Util20PointerHolderCreatorINS_11ZIPProviderEEE@Base 0.2.0
 _ZTSN4Util20PointerHolderCreatorINS_12DBFSProviderEEE@Base 0.2.0
 _ZTSN4Util20PointerHolderCreatorINS_15ArchiveProviderEEE@Base 0.2.0
 _ZTSN4Util22AbstractBitmapStreamerE@Base 0.2.0
 _ZTSN4Util22GenericNumberAttributeE@Base 0.2.0
 _ZTSN4Util22GenericStringAttributeE@Base 0.2.0
 _ZTSN4Util2UI12SplashScreenE@Base 0.2.0
 _ZTSN4Util2UI15SplashScreenX11E@Base 0.2.0
 _ZTSN4Util2UI6WindowE@Base 0.2.0
 _ZTSN4Util2UI9WindowEGLE@Base 0.2.0
 _ZTSN4Util2UI9WindowGLXE@Base 0.2.0
 _ZTSN4Util2UI9WindowSDLE@Base 0.2.0
 _ZTSN4Util2UI9WindowX11E@Base 0.2.0
 _ZTSN4Util7Generic15AbstractStorageE@Base 0.2.0
 _ZTSN4Util7Generic7StorageINSt7__cxx1112basic_stringIcSt11char_traitsIcESaIcEEEEE@Base 0.2.0
 _ZTSN4Util7Generic7StorageISt13unordered_mapINS_16StringIdentifierES0_St4hashIS3_ESt8equal_toIS3_ESaISt4pairIKS3_S0_EEEEE@Base 0.2.0
 _ZTSN4Util7Generic7StorageISt6vectorIS0_SaIS0_EEEE@Base 0.2.0
 _ZTSN4Util7Generic7StorageIbEE@Base 0.2.0
 _ZTSN4Util7Generic7StorageIcEE@Base 0.2.0
 _ZTSN4Util7Generic7StorageIdEE@Base 0.2.0
 _ZTSN4Util7Generic7StorageIfEE@Base 0.2.0
 _ZTSN4Util7Generic7StorageIhEE@Base 0.2.0
 _ZTSN4Util7Generic7StorageIiEE@Base 0.2.0
 _ZTSN4Util7Generic7StorageIjEE@Base 0.2.0
 _ZTSN4Util7Generic7StorageIlEE@Base 0.2.0
 _ZTSN4Util7Generic7StorageImEE@Base 0.2.0
 _ZTSN4Util7Generic7StorageIsEE@Base 0.2.0
 _ZTSN4Util7Generic7StorageItEE@Base 0.2.0
 _ZTSN4Util7Network13TCPConnectionE@Base 0.2.0
 _ZTSN4Util7Network16UDPNetworkSocketE@Base 0.2.0
 _ZTSN4Util7Network9TCPServerE@Base 0.2.0
 _ZTSNSt6thread11_State_implISt12_Bind_simpleIFSt5_BindIFSt7_Mem_fnIMN4Util2UI15SplashScreenX11EFvvEEPS6_EEvEEEE@Base 0.2.0
 _ZTSNSt6thread11_State_implISt12_Bind_simpleIFSt5_BindIFSt7_Mem_fnIMN4Util7Network13TCPConnectionEFvvEEPS6_EEvEEEE@Base 0.2.0
 _ZTSNSt6thread11_State_implISt12_Bind_simpleIFSt5_BindIFSt7_Mem_fnIMN4Util7Network14DataConnectionEFvvEEPS6_EEvEEEE@Base 0.2.0
 _ZTSNSt6thread11_State_implISt12_Bind_simpleIFSt5_BindIFSt7_Mem_fnIMN4Util7Network17ClockSynchronizerEFvvEEPS6_EEvEEEE@Base 0.2.0
 _ZTSNSt6thread11_State_implISt12_Bind_simpleIFSt5_BindIFSt7_Mem_fnIMN4Util7Network9TCPServerEFvvEEPS6_EEvEEEE@Base 0.2.0
 _ZTSPFPN4Util13BoolAttributeERKSt4pairINSt7__cxx1112basic_stringIcSt11char_traitsIcESaIcEEEPKNS_19GenericAttributeMapEEE@Base 0.2.0
 _ZTSPFPN4Util16_NumberAttributeIcEERKSt4pairINSt7__cxx1112basic_stringIcSt11char_traitsIcESaIcEEEPKNS_19GenericAttributeMapEEE@Base 0.2.0
 _ZTSPFPN4Util16_NumberAttributeIdEERKSt4pairINSt7__cxx1112basic_stringIcSt11char_traitsIcESaIcEEEPKNS_19GenericAttributeMapEEE@Base 0.2.0
 _ZTSPFPN4Util16_NumberAttributeIfEERKSt4pairINSt7__cxx1112basic_stringIcSt11char_traitsIcESaIcEEEPKNS_19GenericAttributeMapEEE@Base 0.2.0
 _ZTSPFPN4Util16_NumberAttributeIhEERKSt4pairINSt7__cxx1112basic_stringIcSt11char_traitsIcESaIcEEEPKNS_19GenericAttributeMapEEE@Base 0.2.0
 _ZTSPFPN4Util16_NumberAttributeIiEERKSt4pairINSt7__cxx1112basic_stringIcSt11char_traitsIcESaIcEEEPKNS_19GenericAttributeMapEEE@Base 0.2.0
 _ZTSPFPN4Util16_NumberAttributeIjEERKSt4pairINSt7__cxx1112basic_stringIcSt11char_traitsIcESaIcEEEPKNS_19GenericAttributeMapEEE@Base 0.2.0
 _ZTSPFPN4Util16_NumberAttributeIlEERKSt4pairINSt7__cxx1112basic_stringIcSt11char_traitsIcESaIcEEEPKNS_19GenericAttributeMapEEE@Base 0.2.0
 _ZTSPFPN4Util16_NumberAttributeImEERKSt4pairINSt7__cxx1112basic_stringIcSt11char_traitsIcESaIcEEEPKNS_19GenericAttributeMapEEE@Base 0.2.0
 _ZTSPFPN4Util16_NumberAttributeIsEERKSt4pairINSt7__cxx1112basic_stringIcSt11char_traitsIcESaIcEEEPKNS_19GenericAttributeMapEEE@Base 0.2.0
 _ZTSPFPN4Util16_NumberAttributeItEERKSt4pairINSt7__cxx1112basic_stringIcSt11char_traitsIcESaIcEEEPKNS_19GenericAttributeMapEEE@Base 0.2.0
 _ZTSPFPN4Util16_StringAttributeINSt7__cxx1112basic_stringIcSt11char_traitsIcESaIcEEEEERKSt4pairIS6_PKNS_19GenericAttributeMapEEE@Base 0.2.0
 _ZTSPFPN4Util19GenericAttributeMapERKSt4pairINSt7__cxx1112basic_stringIcSt11char_traitsIcESaIcEEEPKS0_EE@Base 0.2.0
 _ZTSPFPN4Util20GenericAttributeListERKSt4pairINSt7__cxx1112basic_stringIcSt11char_traitsIcESaIcEEEPKNS_19GenericAttributeMapEEE@Base 0.2.0
 _ZTSPFSt4pairINSt7__cxx1112basic_stringIcSt11char_traitsIcESaIcEEES5_ERKS_IPKN4Util16GenericAttributeEPKNS7_19GenericAttributeMapEEE@Base 0.2.0
 _ZTSSt17_Weak_result_typeISt7_Mem_fnIMN4Util14WrapperFactoryISt4pairINSt7__cxx1112basic_stringIcSt11char_traitsIcESaIcEEEPKNS1_19GenericAttributeMapEEPNS1_16GenericAttributeES9_St8functionIFSF_RKSD_EENS1_16FallbackPolicies17ExceptionFallbackEEEFSF_RKS9_SI_EEE@Base 0.2.0
 _ZTSSt17_Weak_result_typeISt7_Mem_fnIMN4Util14WrapperFactoryISt4pairIPKNS1_16GenericAttributeEPKNS1_19GenericAttributeMapEES3_INSt7__cxx1112basic_stringIcSt11char_traitsIcESaIcEEESG_ESt10type_indexSt8functionIFSH_RKSA_EENS1_16FallbackPolicies17ExceptionFallbackEEEFSH_RKSI_SL_EEE@Base 0.2.0
 _ZTSSt17_Weak_result_typeISt7_Mem_fnIMN4Util2UI12EventContextEFbRKNS2_5EventEEEE@Base 0.2.0
 _ZTSSt17_Weak_result_typeISt7_Mem_fnIMN4Util7FactoryIPNS1_18AbstractFSProviderENSt7__cxx1112basic_stringIcSt11char_traitsIcESaIcEEESt8functionIFS4_vEENS1_16FallbackPolicies12NULLFallbackEEEFS4_RKSA_EEE@Base 0.2.0
 _ZTSSt17_Weak_result_typeISt7_Mem_fnIMN4Util7FactoryIPNS1_22AbstractBitmapStreamerENSt7__cxx1112basic_stringIcSt11char_traitsIcESaIcEEESt8functionIFS4_vEENS1_16FallbackPolicies12NULLFallbackEEEFS4_RKSA_EEE@Base 0.2.0
 _ZTSSt22_Maybe_get_result_typeISt7_Mem_fnIMN4Util14WrapperFactoryISt4pairINSt7__cxx1112basic_stringIcSt11char_traitsIcESaIcEEEPKNS1_19GenericAttributeMapEEPNS1_16GenericAttributeES9_St8functionIFSF_RKSD_EENS1_16FallbackPolicies17ExceptionFallbackEEEFSF_RKS9_SI_EEvE@Base 0.2.0
 _ZTSSt22_Maybe_get_result_typeISt7_Mem_fnIMN4Util14WrapperFactoryISt4pairIPKNS1_16GenericAttributeEPKNS1_19GenericAttributeMapEES3_INSt7__cxx1112basic_stringIcSt11char_traitsIcESaIcEEESG_ESt10type_indexSt8functionIFSH_RKSA_EENS1_16FallbackPolicies17ExceptionFallbackEEEFSH_RKSI_SL_EEvE@Base 0.2.0
 _ZTSSt22_Maybe_get_result_typeISt7_Mem_fnIMN4Util2UI12EventContextEFbRKNS2_5EventEEEvE@Base 0.2.0
 _ZTSSt22_Maybe_get_result_typeISt7_Mem_fnIMN4Util7FactoryIPNS1_18AbstractFSProviderENSt7__cxx1112basic_stringIcSt11char_traitsIcESaIcEEESt8functionIFS4_vEENS1_16FallbackPolicies12NULLFallbackEEEFS4_RKSA_EEvE@Base 0.2.0
 _ZTSSt22_Maybe_get_result_typeISt7_Mem_fnIMN4Util7FactoryIPNS1_22AbstractBitmapStreamerENSt7__cxx1112basic_stringIcSt11char_traitsIcESaIcEEESt8functionIFS4_vEENS1_16FallbackPolicies12NULLFallbackEEEFS4_RKSA_EEvE@Base 0.2.0
 _ZTSSt22_Weak_result_type_implISt7_Mem_fnIMN4Util14WrapperFactoryISt4pairINSt7__cxx1112basic_stringIcSt11char_traitsIcESaIcEEEPKNS1_19GenericAttributeMapEEPNS1_16GenericAttributeES9_St8functionIFSF_RKSD_EENS1_16FallbackPolicies17ExceptionFallbackEEEFSF_RKS9_SI_EEE@Base 0.2.0
 _ZTSSt22_Weak_result_type_implISt7_Mem_fnIMN4Util14WrapperFactoryISt4pairIPKNS1_16GenericAttributeEPKNS1_19GenericAttributeMapEES3_INSt7__cxx1112basic_stringIcSt11char_traitsIcESaIcEEESG_ESt10type_indexSt8functionIFSH_RKSA_EENS1_16FallbackPolicies17ExceptionFallbackEEEFSH_RKSI_SL_EEE@Base 0.2.0
 _ZTSSt22_Weak_result_type_implISt7_Mem_fnIMN4Util2UI12EventContextEFbRKNS2_5EventEEEE@Base 0.2.0
 _ZTSSt22_Weak_result_type_implISt7_Mem_fnIMN4Util7FactoryIPNS1_18AbstractFSProviderENSt7__cxx1112basic_stringIcSt11char_traitsIcESaIcEEESt8functionIFS4_vEENS1_16FallbackPolicies12NULLFallbackEEEFS4_RKSA_EEE@Base 0.2.0
 _ZTSSt22_Weak_result_type_implISt7_Mem_fnIMN4Util7FactoryIPNS1_22AbstractBitmapStreamerENSt7__cxx1112basic_stringIcSt11char_traitsIcESaIcEEESt8functionIFS4_vEENS1_16FallbackPolicies12NULLFallbackEEEFS4_RKSA_EEE@Base 0.2.0
 _ZTSSt5_BindIFSt7_Mem_fnIMN4Util14WrapperFactoryISt4pairINSt7__cxx1112basic_stringIcSt11char_traitsIcESaIcEEEPKNS1_19GenericAttributeMapEEPNS1_16GenericAttributeES9_St8functionIFSF_RKSD_EENS1_16FallbackPolicies17ExceptionFallbackEEEFSF_RKS9_SI_EEPSN_St12_PlaceholderILi1EESD_EE@Base 0.2.0
 _ZTSSt5_BindIFSt7_Mem_fnIMN4Util14WrapperFactoryISt4pairIPKNS1_16GenericAttributeEPKNS1_19GenericAttributeMapEES3_INSt7__cxx1112basic_stringIcSt11char_traitsIcESaIcEEESG_ESt10type_indexSt8functionIFSH_RKSA_EENS1_16FallbackPolicies17ExceptionFallbackEEEFSH_RKSI_SL_EEPSQ_St12_PlaceholderILi1EESA_EE@Base 0.2.0
 _ZTSSt5_BindIFSt7_Mem_fnIMN4Util2UI12EventContextEFbRKNS2_5EventEEEPS3_St12_PlaceholderILi1EEEE@Base 0.2.0
 _ZTSSt5_BindIFSt7_Mem_fnIMN4Util7FactoryIPNS1_18AbstractFSProviderENSt7__cxx1112basic_stringIcSt11char_traitsIcESaIcEEESt8functionIFS4_vEENS1_16FallbackPolicies12NULLFallbackEEEFS4_RKSA_EEPSG_St12_PlaceholderILi1EEEE@Base 0.2.0
 _ZTSSt5_BindIFSt7_Mem_fnIMN4Util7FactoryIPNS1_22AbstractBitmapStreamerENSt7__cxx1112basic_stringIcSt11char_traitsIcESaIcEEESt8functionIFS4_vEENS1_16FallbackPolicies12NULLFallbackEEEFS4_RKSA_EEPSG_St12_PlaceholderILi1EEEE@Base 0.2.0
 _ZTVN4Util10FSProviderE@Base 0.2.0
 _ZTVN4Util11NetProviderE@Base 0.2.0
 _ZTVN4Util11StreamerPNGE@Base 0.2.0
 _ZTVN4Util11StreamerSDLE@Base 0.2.0
 _ZTVN4Util11ZIPProviderE@Base 0.2.0
 _ZTVN4Util12DBFSProviderE@Base 0.2.0
 _ZTVN4Util13BoolAttributeE@Base 0.2.0
 _ZTVN4Util13PixelAccessorE@Base 0.2.0
 _ZTVN4Util14PixelAccessorFE@Base 0.2.0
 _ZTVN4Util15ArchiveProviderE@Base 0.2.0
 _ZTVN4Util15PixelAccessorUbE@Base 0.2.0
 _ZTVN4Util16FallbackPolicies17ExceptionFallbackIPNS_16GenericAttributeENSt7__cxx1112basic_stringIcSt11char_traitsIcESaIcEEEE9ExceptionE@Base 0.2.0
 _ZTVN4Util16FallbackPolicies17ExceptionFallbackISt4pairINSt7__cxx1112basic_stringIcSt11char_traitsIcESaIcEEES8_ESt10type_indexE9ExceptionE@Base 0.2.0
 _ZTVN4Util16PixelAccessor4ubE@Base 0.2.0
 _ZTVN4Util16PixelAccessorI32E@Base 0.2.0
 _ZTVN4Util16PixelAccessorU32E@Base 0.2.0
 _ZTVN4Util16StreamerSDLImageE@Base 0.2.0
 _ZTVN4Util16WrapperAttributeIPvEE@Base 0.2.0
 _ZTVN4Util16_NumberAttributeIcEE@Base 0.2.0
 _ZTVN4Util16_NumberAttributeIdEE@Base 0.2.0
 _ZTVN4Util16_NumberAttributeIfEE@Base 0.2.0
 _ZTVN4Util16_NumberAttributeIhEE@Base 0.2.0
 _ZTVN4Util16_NumberAttributeIiEE@Base 0.2.0
 _ZTVN4Util16_NumberAttributeIjEE@Base 0.2.0
 _ZTVN4Util16_NumberAttributeIlEE@Base 0.2.0
 _ZTVN4Util16_NumberAttributeImEE@Base 0.2.0
 _ZTVN4Util16_NumberAttributeIsEE@Base 0.2.0
 _ZTVN4Util16_NumberAttributeItEE@Base 0.2.0
 _ZTVN4Util16_StringAttributeINSt7__cxx1112basic_stringIcSt11char_traitsIcESaIcEEEEE@Base 0.2.0
 _ZTVN4Util18AbstractFSProviderE@Base 0.2.0
 _ZTVN4Util19GenericAttributeMapE@Base 0.2.0
 _ZTVN4Util20GenericAttributeListE@Base 0.2.0
 _ZTVN4Util2UI12SplashScreenE@Base 0.2.0
 _ZTVN4Util2UI15SplashScreenX11E@Base 0.2.0
 _ZTVN4Util2UI6WindowE@Base 0.2.0
 _ZTVN4Util2UI9WindowEGLE@Base 0.2.0
 _ZTVN4Util2UI9WindowGLXE@Base 0.2.0
 _ZTVN4Util2UI9WindowSDLE@Base 0.2.0
 _ZTVN4Util2UI9WindowX11E@Base 0.2.0
 _ZTVN4Util7Generic7StorageINSt7__cxx1112basic_stringIcSt11char_traitsIcESaIcEEEEE@Base 0.2.0
 _ZTVN4Util7Generic7StorageISt13unordered_mapINS_16StringIdentifierES0_St4hashIS3_ESt8equal_toIS3_ESaISt4pairIKS3_S0_EEEEE@Base 0.2.0
 _ZTVN4Util7Generic7StorageISt6vectorIS0_SaIS0_EEEE@Base 0.2.0
 _ZTVN4Util7Generic7StorageIbEE@Base 0.2.0
 _ZTVN4Util7Generic7StorageIcEE@Base 0.2.0
 _ZTVN4Util7Generic7StorageIdEE@Base 0.2.0
 _ZTVN4Util7Generic7StorageIfEE@Base 0.2.0
 _ZTVN4Util7Generic7StorageIhEE@Base 0.2.0
 _ZTVN4Util7Generic7StorageIiEE@Base 0.2.0
 _ZTVN4Util7Generic7StorageIjEE@Base 0.2.0
 _ZTVN4Util7Generic7StorageIlEE@Base 0.2.0
 _ZTVN4Util7Generic7StorageImEE@Base 0.2.0
 _ZTVN4Util7Generic7StorageIsEE@Base 0.2.0
 _ZTVN4Util7Generic7StorageItEE@Base 0.2.0
 _ZTVN4Util7Network13TCPConnectionE@Base 0.2.0
 _ZTVN4Util7Network16UDPNetworkSocketE@Base 0.2.0
 _ZTVN4Util7Network9TCPServerE@Base 0.2.0
 _ZTVNSt6thread11_State_implISt12_Bind_simpleIFSt5_BindIFSt7_Mem_fnIMN4Util2UI15SplashScreenX11EFvvEEPS6_EEvEEEE@Base 0.2.0
 _ZTVNSt6thread11_State_implISt12_Bind_simpleIFSt5_BindIFSt7_Mem_fnIMN4Util7Network13TCPConnectionEFvvEEPS6_EEvEEEE@Base 0.2.0
 _ZTVNSt6thread11_State_implISt12_Bind_simpleIFSt5_BindIFSt7_Mem_fnIMN4Util7Network14DataConnectionEFvvEEPS6_EEvEEEE@Base 0.2.0
 _ZTVNSt6thread11_State_implISt12_Bind_simpleIFSt5_BindIFSt7_Mem_fnIMN4Util7Network17ClockSynchronizerEFvvEEPS6_EEvEEEE@Base 0.2.0
 _ZTVNSt6thread11_State_implISt12_Bind_simpleIFSt5_BindIFSt7_Mem_fnIMN4Util7Network9TCPServerEFvvEEPS6_EEvEEEE@Base 0.2.0
